Archive member included because of file (symbol)

board/wmt/libwmt.a(lowlevel_init.o)
                              cpu/arm920t/start.o (lowlevel_init)
cpu/arm920t/libarm920t.a(interrupts.o)
                              cpu/arm920t/start.o (do_undefined_instruction)
cpu/arm920t/wmt/libwmt.a(interrupts.o)
                              cpu/arm920t/libarm920t.a(interrupts.o) (reset_cpu)
lib_arm/libarm.a(board.o)     cpu/arm920t/start.o (start_armboot)
net/libnet.a(net.o)           lib_arm/libarm.a(board.o) (copy_filename)
net/libnet.a(tftp.o)          net/libnet.a(net.o) (TftpStart)
net/libnet.a(bootp.o)         net/libnet.a(net.o) (BootpRequest)
net/libnet.a(rarp.o)          net/libnet.a(net.o) (RarpRequest)
net/libnet.a(eth.o)           lib_arm/libarm.a(board.o) (eth_initialize)
net/libnet.a(nfs.o)           net/libnet.a(net.o) (NfsStart)
common/libcommon.a(main.o)    lib_arm/libarm.a(board.o) (main_loop)
common/libcommon.a(cmd_autoscript.o)
                              (__u_boot_cmd_autoscr)
common/libcommon.a(cmd_bdinfo.o)
                              (__u_boot_cmd_bdinfo)
common/libcommon.a(cmd_boot.o)
                              (__u_boot_cmd_go)
common/libcommon.a(cmd_bootm.o)
                              common/libcommon.a(main.o) (do_bootd)
common/libcommon.a(cmd_console.o)
                              (__u_boot_cmd_coninfo)
common/libcommon.a(cmd_fat.o)
                              (__u_boot_cmd_fatload)
common/libcommon.a(cmd_flash.o)
                              (__u_boot_cmd_flinfo)
common/libcommon.a(cmd_i2c.o)
                              (__u_boot_cmd_imd)
common/libcommon.a(cmd_ide.o)
                              common/libcommon.a(cmd_fat.o) (ide_get_dev)
common/libcommon.a(cmd_itest.o)
                              (__u_boot_cmd_itest)
common/libcommon.a(cmd_load.o)
                              (__u_boot_cmd_loads)
common/libcommon.a(cmd_mem.o)
                              common/libcommon.a(cmd_i2c.o) (cmd_get_data_size)
common/libcommon.a(cmd_mii.o)
                              (__u_boot_cmd_mii)
common/libcommon.a(cmd_misc.o)
                              (__u_boot_cmd_sleep)
common/libcommon.a(cmd_mmc.o)
                              (__u_boot_cmd_mmcinit)
common/libcommon.a(cmd_dma.o)
                              (__u_boot_cmd_dmacp)
common/libcommon.a(cmd_nand.o)
                              lib_arm/libarm.a(board.o) (nand_probe)
common/libcommon.a(cmd_net.o)
                              (__u_boot_cmd_bootp)
common/libcommon.a(cmd_nvedit.o)
                              net/libnet.a(net.o) (setenv)
common/libcommon.a(cmd_usb.o)
                              (__u_boot_cmd_usb)
common/libcommon.a(command.o)
                              common/libcommon.a(main.o) (find_cmd)
common/libcommon.a(console.o)
                              cpu/arm920t/libarm920t.a(interrupts.o) (printf)
common/libcommon.a(devices.o)
                              lib_arm/libarm.a(board.o) (devices_init)
common/libcommon.a(dlmalloc.o)
                              common/libcommon.a(cmd_autoscript.o) (free)
common/libcommon.a(env_common.o)
                              common/libcommon.a(cmd_nvedit.o) (env_crc_update)
common/libcommon.a(env_flash.o)
                              common/libcommon.a(env_common.o) (env_get_char_spec)
common/libcommon.a(exports.o)
                              lib_arm/libarm.a(board.o) (jumptable_init)
common/libcommon.a(wmt_cmd_display.o)
                              (__u_boot_cmd_display)
common/libcommon.a(minivgui.o)
                              common/libcommon.a(wmt_cmd_display.o) (mv_initPrimary)
common/libcommon.a(uboot-vpp.o)
                              common/libcommon.a(wmt_cmd_display.o) (wmt_graphic_init)
common/libcommon.a(cmd_mbit.o)
                              (__u_boot_cmd_mbit)
common/libcommon.a(cmd_textout.o)
                              common/libcommon.a(wmt_cmd_display.o) (text_x)
common/libcommon.a(env_parse.o)
                              common/libcommon.a(uboot-vpp.o) (parse_gpio_operation)
common/libcommon.a(flash.o)   common/libcommon.a(cmd_load.o) (addr2info)
common/libcommon.a(hush.o)    common/libcommon.a(main.o) (parse_string_outer)
common/libcommon.a(lists.o)   common/libcommon.a(devices.o) (ListCreate)
common/libcommon.a(miiphyutil.o)
                              net/libnet.a(eth.o) (miiphy_init)
common/libcommon.a(s_record.o)
                              common/libcommon.a(cmd_load.o) (srec_decode)
common/libcommon.a(usb.o)     common/libcommon.a(cmd_usb.o) (usb_string)
common/libcommon.a(usb_storage.o)
                              common/libcommon.a(cmd_fat.o) (usb_stor_get_dev)
common/libcommon.a(pwm.o)     common/libcommon.a(wmt_cmd_display.o) (pwm_set_control)
common/libcommon.a(wmt-ost.o)
                              common/libcommon.a(uboot-vpp.o) (wmt_delayus)
common/libcommon.a(govrh.o)   common/libcommon.a(wmt_cmd_display.o) (govrh_set_tg_enable)
common/libcommon.a(lcd.o)     common/libcommon.a(uboot-vpp.o) (lcd_module_init)
common/libcommon.a(lvds.o)    common/libcommon.a(govrh.o) (lvds_get_colfmt)
common/libcommon.a(vpp.o)     common/libcommon.a(govrh.o) (vpp_mod_register)
common/libcommon.a(hdmi.o)    common/libcommon.a(govrh.o) (hdmi_get_output_colfmt)
common/libcommon.a(vout-wmt.o)
                              common/libcommon.a(lcd.o) (vo_get_lcd_id)
common/libcommon.a(lcd-oem.o)
                              common/libcommon.a(uboot-vpp.o) (lcd_oem_init)
common/libcommon.a(lcd-AUO-A080SN01.o)
                              common/libcommon.a(uboot-vpp.o) (lcd_a080sn01_init)
common/libcommon.a(lcd-INNOLUX-AT070TN83.o)
                              common/libcommon.a(uboot-vpp.o) (lcd_at070tn83_init)
common/libcommon.a(lcd-CHILIN-LW700at9003.o)
                              common/libcommon.a(uboot-vpp.o) (lcd_lw700at9003_init)
common/libcommon.a(lcd-EKING-EK08009-70135.o)
                              common/libcommon.a(uboot-vpp.o) (lcd_ek08009_init)
common/libcommon.a(lcd-HANNSTAR-HSD101PFW2.o)
                              common/libcommon.a(uboot-vpp.o) (lcd_HSD101PFW2_init)
common/libcommon.a(vt1632.o)  common/libcommon.a(uboot-vpp.o) (vt1632_module_init)
common/libcommon.a(sil902x.o)
                              common/libcommon.a(uboot-vpp.o) (sil902x_module_init)
common/libcommon.a(vpp-osif.o)
                              common/libcommon.a(vout-wmt.o) (vppif_reg8_in)
common/libcommon.a(vout.o)    common/libcommon.a(vout-wmt.o) (vout_change_status)
common/libcommon.a(sw_i2c.o)  common/libcommon.a(vout-wmt.o) (wmt_swi2c_read)
common/libcommon.a(parse-edid.o)
                              common/libcommon.a(vout-wmt.o) (edid_checksum)
lib_generic/libgeneric.a(crc32.o)
                              common/libcommon.a(cmd_autoscript.o) (crc32)
lib_generic/libgeneric.a(ctype.o)
                              common/libcommon.a(cmd_textout.o) (_ctype)
lib_generic/libgeneric.a(display_options.o)
                              lib_arm/libarm.a(board.o) (print_size)
lib_generic/libgeneric.a(string.o)
                              net/libnet.a(net.o) (strcpy)
lib_generic/libgeneric.a(vsprintf.o)
                              lib_arm/libarm.a(board.o) (simple_strtoul)
lib_generic/libgeneric.a(zlib.o)
                              common/libcommon.a(cmd_bootm.o) (inflateEnd)
board/wmt/libwmt.a(wmt.o)     lib_arm/libarm.a(board.o) (board_init)
board/wmt/libwmt.a(flash.o)   lib_arm/libarm.a(board.o) (flash_init)
board/wmt/libwmt.a(main.o)    lib_arm/libarm.a(board.o) (wmt_post)
board/wmt/libwmt.a(spi_flash.o)
                              board/wmt/libwmt.a(flash.o) (spi_flash_init)
board/wmt/libwmt.a(nand_flash.o)
                              board/wmt/libwmt.a(flash.o) (nand_flash_init)
board/wmt/libwmt.a(nor_flash_8bit.o)
                              board/wmt/libwmt.a(flash.o) (nor_flash_8b_init)
board/wmt/libwmt.a(nor_flash_16bit.o)
                              board/wmt/libwmt.a(flash.o) (nor_flash_16b_init)
board/wmt/libwmt.a(wmt_clk.o)
                              common/libcommon.a(uboot-vpp.o) (auto_pll_divisor)
board/wmt/libwmt.a(ehci-hcd.o)
                              common/libcommon.a(usb.o) (usb_lowlevel_stop)
board/wmt/libwmt.a(usb_uhci.o)
                              common/libcommon.a(usb.o) (submit_uhci_control_msg)
board/wmt/libwmt.a(wmt_i2c.o)
                              common/libcommon.a(devices.o) (i2c_init)
board/wmt/libwmt.a(wmt_i2c_1.o)
                              common/libcommon.a(devices.o) (i2c1_init)
cpu/arm920t/libarm920t.a(cpu.o)
                              lib_arm/libarm.a(board.o) (cpu_init)
cpu/arm920t/wmt/libwmt.a(serial.o)
                              common/libcommon.a(console.o) (serial_putc)
cpu/arm920t/wmt/libwmt.a(ether.o)
                              net/libnet.a(net.o) (eth_init)
cpu/arm920t/wmt/libwmt.a(gmacif.o)
                              cpu/arm920t/wmt/libwmt.a(ether.o) (gmac_startio)
cpu/arm920t/wmt/libwmt.a(dma.o)
                              common/libcommon.a(cmd_dma.o) (request_dma)
cpu/arm920t/wmt/libwmt.a(mmc.o)
                              common/libcommon.a(cmd_fat.o) (mmc_get_dev)
cpu/arm920t/wmt/libwmt.a(pcinet.o)
                              cpu/arm920t/wmt/libwmt.a(gmacif.o) (g_IO_point)
cpu/arm920t/wmt/libwmt.a(gmii.o)
                              cpu/arm920t/wmt/libwmt.a(gmacif.o) (GMIIbReadEmbeded)
cpu/arm920t/wmt/libwmt.a(gmib.o)
                              cpu/arm920t/wmt/libwmt.a(gmacif.o) (GSTAvClearAllCounter)
cpu/arm920t/wmt/libwmt.a(galloct.o)
                              cpu/arm920t/wmt/libwmt.a(gmacif.o) (GALCvChainRdrMemory)
cpu/arm920t/wmt/libwmt.a(gmac.o)
                              cpu/arm920t/wmt/libwmt.a(gmacif.o) (GMACbIsRegBitsOn)
cpu/arm920t/wmt/libwmt.a(gadapter.o)
                              cpu/arm920t/wmt/libwmt.a(gmacif.o) (GADPuInitAll)
cpu/arm920t/wmt/libwmt.a(mem.o)
                              cpu/arm920t/wmt/libwmt.a(galloct.o) (MEMvAlign)
cpu/arm920t/wmt/libwmt.a(vpci.o)
                              cpu/arm920t/wmt/libwmt.a(gadapter.o) (VPCIvReadB)
cpu/arm920t/wmt/libwmt.a(upcix.o)
                              cpu/arm920t/wmt/libwmt.a(pcinet.o) (PCIXvReadB)
cpu/arm920t/wmt/libwmt.a(gcard.o)
                              cpu/arm920t/wmt/libwmt.a(gadapter.o) (GCARDvSetMediaLinkMode)
cpu/arm920t/wmt/libwmt.a(gisr.o)
                              cpu/arm920t/wmt/libwmt.a(gadapter.o) (ISRvIsrForNetwork_Card3)
cpu/arm920t/wmt/libwmt.a(tconvert.o)
                              cpu/arm920t/wmt/libwmt.a(gadapter.o) (CVTvBy6ToStr12)
cpu/arm920t/wmt/libwmt.a(tcrc.o)
                              cpu/arm920t/wmt/libwmt.a(gisr.o) (CRCdwGetCrc32)
lib_arm/libarm.a(armlinux.o)  common/libcommon.a(cmd_bootm.o) (do_bootm_linux)
lib_arm/libarm.a(cache.o)     common/libcommon.a(cmd_ide.o) (flush_cache)
fs/fat/libfat.a(fat.o)        common/libcommon.a(cmd_fat.o) (fat_register_device)
disk/libdisk.a(part.o)        common/libcommon.a(cmd_ide.o) (dev_print)
disk/libdisk.a(part_dos.o)    disk/libdisk.a(part.o) (test_part_dos)
cpu/arm920t/wmt/libwmt.a(zde.o)
                              lib_arm/libarm.a(armlinux.o) (semi_bootloados)
/root/Project/sdc1/AndroidPC_2.0/tools/arm-toolchain/bin/../lib/gcc/arm-none-eabi/4.5.2/libgcc.a(_udivsi3.o)
                              cpu/arm920t/wmt/libwmt.a(interrupts.o) (__aeabi_uidiv)
/root/Project/sdc1/AndroidPC_2.0/tools/arm-toolchain/bin/../lib/gcc/arm-none-eabi/4.5.2/libgcc.a(_divsi3.o)
                              common/libcommon.a(lists.o) (__aeabi_idiv)
/root/Project/sdc1/AndroidPC_2.0/tools/arm-toolchain/bin/../lib/gcc/arm-none-eabi/4.5.2/libgcc.a(_dvmd_tls.o)
                              /root/Project/sdc1/AndroidPC_2.0/tools/arm-toolchain/bin/../lib/gcc/arm-none-eabi/4.5.2/libgcc.a(_udivsi3.o) (__aeabi_idiv0)
/root/Project/sdc1/AndroidPC_2.0/tools/arm-toolchain/bin/../lib/gcc/arm-none-eabi/4.5.2/libgcc.a(_ashldi3.o)
                              common/libcommon.a(cmd_nand.o) (__aeabi_llsl)

Memory Configuration

Name             Origin             Length             Attributes
*default*        0x00000000         0xffffffff

Linker script and memory map

                0x00000000                . = 0x0
                0x00000000                . = ALIGN (0x4)

.text           0x03f80000    0x39bd8
 cpu/arm920t/start.o(.text)
 .text          0x03f80000      0x3a0 cpu/arm920t/start.o
                0x03f80000                _start
                0x03f80044                _armboot_start
                0x03f80048                _bss_start
                0x03f8004c                _bss_end
 *(.text)
 .text          0x03f803a0        0x8 board/wmt/libwmt.a(lowlevel_init.o)
                0x03f803a4                lowlevel_init
 .text          0x03f803a8      0x264 cpu/arm920t/libarm920t.a(interrupts.o)
                0x03f803a8                enable_interrupts
                0x03f803ac                disable_interrupts
                0x03f803b4                bad_mode
                0x03f803d0                show_regs
                0x03f80510                do_undefined_instruction
                0x03f80534                do_software_interrupt
                0x03f80558                do_prefetch_abort
                0x03f8057c                do_data_abort
                0x03f805a0                do_not_used
                0x03f805c4                do_fiq
                0x03f805e8                do_irq
 .text          0x03f8060c      0x22c cpu/arm920t/wmt/libwmt.a(interrupts.o)
                0x03f80640                set_timer
                0x03f80650                reset_timer_masked
                0x03f80670                reset_timer
                0x03f80674                interrupt_init
                0x03f806b8                get_timer_masked
                0x03f806ec                get_timer
                0x03f80700                udelay
                0x03f80768                udelay_masked
                0x03f807bc                get_ticks
                0x03f807d0                get_tbclk
                0x03f807dc                reset_cpu
 .text          0x03f80838      0x354 lib_arm/libarm.a(board.o)
                0x03f80904                nand_init
                0x03f80928                sbrk
                0x03f80960                raise
                0x03f80964                hang
                0x03f80978                start_armboot
 .text          0x03f80b8c     0x11dc net/libnet.a(net.o)
                0x03f80c40                NetSetHandler
                0x03f80c50                NetSetTimeout
                0x03f80c80                NetStartAgain
                0x03f80cfc                NetSendPacket
                0x03f80d00                NetCksum
                0x03f80d34                NetCksumOk
                0x03f80d58                NetEthHdrSize
                0x03f80d9c                NetSetEther
                0x03f80e44                ArpRequest
                0x03f80f28                ArpTimeoutCheck
                0x03f80f9c                PingSend
                0x03f810c0                NetSetIP
                0x03f811a4                NetSendUDPPacket
                0x03f812dc                copy_filename
                0x03f81320                ip_to_string
                0x03f81364                string_to_ip
                0x03f813cc                VLAN_to_string
                0x03f81424                string_to_VLAN
                0x03f81470                print_IPaddr
                0x03f8148c                NetReceive
                0x03f81934                getenv_IPaddr
                0x03f81944                getenv_VLAN
                0x03f81954                NetLoop
 .text          0x03f81d68      0x5fc net/libnet.a(tftp.o)
                0x03f8216c                TftpStart
 .text          0x03f82364      0x8f8 net/libnet.a(bootp.o)
                0x03f82a70                BootpRequest
                0x03f82c58                DhcpRequest
 .text          0x03f82c5c      0x198 net/libnet.a(rarp.o)
                0x03f82cb8                RarpRequest
 .text          0x03f82df4       0x1c net/libnet.a(eth.o)
                0x03f82df4                eth_initialize
 .text          0x03f82e10      0xe14 net/libnet.a(nfs.o)
                0x03f839f4                NfsStart
 .text          0x03f83c24      0x93c common/libcommon.a(main.o)
                0x03f83d00                readline
                0x03f83ef4                run_command
                0x03f84324                main_loop
                0x03f844e0                do_run
 .text          0x03f84560      0x1b0 common/libcommon.a(cmd_autoscript.o)
                0x03f84568                autoscript
                0x03f846d0                do_autoscript
 .text          0x03f84710       0xec common/libcommon.a(cmd_bdinfo.o)
                0x03f84728                do_bdinfo
 .text          0x03f847fc       0x80 common/libcommon.a(cmd_boot.o)
                0x03f847fc                do_go
 .text          0x03f8487c      0xa74 common/libcommon.a(cmd_bootm.o)
                0x03f8489c                do_bootd
                0x03f848c0                print_image_hdr
                0x03f84c34                do_iminfo
                0x03f84c94                gunzip
                0x03f84de0                do_bootm
 .text          0x03f852f0       0xcc common/libcommon.a(cmd_console.o)
                0x03f852f0                do_coninfo
 .text          0x03f853bc      0x558 common/libcommon.a(cmd_fat.o)
                0x03f853bc                get_dev
                0x03f85444                do_fat_fsinfo
                0x03f8551c                do_fat_ls
                0x03f85624                do_fat_fsstore
                0x03f85794                do_fat_fsload
 .text          0x03f85914      0xbc8 common/libcommon.a(cmd_flash.o)
                0x03f85dc0                do_flinfo
                0x03f85e6c                flash_sect_erase
                0x03f85f54                do_flerase
                0x03f86130                flash_sect_protect
                0x03f86234                do_protect
 .text          0x03f864dc      0x930 common/libcommon.a(cmd_i2c.o)
                0x03f864e4                do_i2c_loop
                0x03f865f8                do_i2c_probe
                0x03f86648                do_i2c_md
                0x03f86830                do_i2c_crc
                0x03f86980                do_i2c_reg_set
                0x03f86a80                do_i2c_mw
                0x03f86dbc                do_i2c_nm
                0x03f86de4                do_i2c_mm
 .text          0x03f86e0c      0xe3c common/libcommon.a(cmd_ide.o)
                0x03f86f14                do_diskboot
                0x03f873a0                ide_read
                0x03f87588                ide_init
                0x03f87708                ide_get_dev
                0x03f8771c                ide_write
                0x03f87884                do_ide
 .text          0x03f87c48      0x2d0 common/libcommon.a(cmd_itest.o)
                0x03f87cac                binary_test
                0x03f87e6c                do_itest
 .text          0x03f87f18      0xb24 common/libcommon.a(cmd_load.o)
                0x03f8817c                do_load_serial
                0x03f88258                send_pad
                0x03f88284                ktrans
                0x03f882a4                chk1
                0x03f882cc                s1_sendpacket
                0x03f882f0                send_ack
                0x03f8834c                send_nack
                0x03f883a8                k_data_init
                0x03f883c8                k_data_save
                0x03f883f4                k_data_restore
                0x03f88420                k_data_char
                0x03f88470                handle_send_packet
                0x03f88634                do_load_serial_bin
 .text          0x03f88a3c      0xbe8 common/libcommon.a(cmd_mem.o)
                0x03f88a3c                do_mem_base
                0x03f88a7c                do_mem_crc
                0x03f88bb8                do_mem_mtest
                0x03f88cdc                cmd_get_data_size
                0x03f88d2c                do_mem_loop
                0x03f88e28                do_mem_cp
                0x03f89028                do_mem_cmp
                0x03f891c4                do_mem_mw
                0x03f893ec                do_mem_nm
                0x03f89414                do_mem_mm
                0x03f8943c                do_mem_md
 .text          0x03f89624      0x78c common/libcommon.a(cmd_mii.o)
                0x03f8966c                MII_dump_0_to_5
                0x03f8992c                do_mii
 .text          0x03f89db0       0x90 common/libcommon.a(cmd_misc.o)
                0x03f89db0                do_sleep
 .text          0x03f89e40      0x300 common/libcommon.a(cmd_mmc.o)
                0x03f89e40                do_mmc_write
                0x03f89f24                do_mmc_read
                0x03f8a008                do_mmc
                0x03f8a0a4                do_mmc_wait_insert
 .text          0x03f8a140      0x1fc common/libcommon.a(cmd_dma.o)
                0x03f8a140                do_dma_cp
                0x03f8a324                free_dma_channels
 .text          0x03f8a33c     0x4f1c common/libcommon.a(cmd_nand.o)
                0x03f8a344                isbbtbadblock
                0x03f8a39c                update_bbt_inram
                0x03f8a494                WRITE_NAND_COMMAND
                0x03f8a4ac                nfc_ecc_set
                0x03f8a600                shift_bit
                0x03f8a628                NFC_WAIT_READY
                0x03f8a658                NAND_WAIT_READY
                0x03f8a6a0                NFC_WAIT_CMD_READY
                0x03f8a6d0                NAND_WAIT_IDLE
                0x03f8a70c                check_block
                0x03f8a81c                NanD_Address
                0x03f8a9ac                nand_init_pdma
                0x03f8a9e0                nand_free_pdma
                0x03f8a9fc                nand_alloc_desc_pool
                0x03f8aa1c                nand_init_short_desc
                0x03f8aa6c                nand_init_long_desc
                0x03f8aacc                nand_config_pdma
                0x03f8ab00                nfc_dma_cfg
                0x03f8ac5c                nand_pdma_handler
                0x03f8ad40                nand_read_page
                0x03f8aec0                NFC_CHECK_ECC
                0x03f8af28                nfc_BCH_ecc_correct
                0x03f8afac                nfc_BCH_ecc_check
                0x03f8b0a4                nfc_BCH_read_page
                0x03f8b27c                nfc_BCH_read_8kpage
                0x03f8b580                nand_read_status
                0x03f8b604                wmt_nand_erase
                0x03f8b6c4                nand_page_program
                0x03f8b7c8                nand_page_program_random
                0x03f8b978                nand_write_block
                0x03f8bbc8                update_bbt_inflash
                0x03f8bf58                nand_read_block
                0x03f8c010                creat_bbt
                0x03f8c1fc                nfc_1bit_ecc_correct
                0x03f8c378                nfc_1bit_read_page
                0x03f8c3e0                wmt_nand_reset
                0x03f8c430                nand_readID
                0x03f8c4b0                wmt_calc_clock
                0x03f8c804                wmt_get_timing
                0x03f8c8b0                get_pattern_small
                0x03f8c944                get_pattern_large
                0x03f8ca10                WMT_check_pattern
                0x03f8cab8                find_bbt
                0x03f8cca4                nand_probe
                0x03f8d6ac                check_block_table
                0x03f8d790                nand_erase
                0x03f8d8c8                WMTLoadImageFormNAND
                0x03f8da00                WMTSaveImageToNAND
                0x03f8dc70                WMTEraseNAND
                0x03f8ddd8                tellme_whereistable
                0x03f8de7c                tellme_badblock
                0x03f8df48                nand_rw
                0x03f8e464                do_nandboot
                0x03f8e6d8                WMTEraseNANDALL
                0x03f8e7a8                tellme_nandinfo
                0x03f8e8e8                do_nand
 .text          0x03f8f258      0x374 common/libcommon.a(cmd_net.o)
                0x03f8f258                do_ping
                0x03f8f590                do_nfs
                0x03f8f59c                do_dhcp
                0x03f8f5a8                do_rarpb
                0x03f8f5b4                do_tftpb
                0x03f8f5c0                do_bootp
 .text          0x03f8f5cc      0x858 common/libcommon.a(cmd_nvedit.o)
                0x03f8f640                do_saveenv
                0x03f8f66c                do_printenv
                0x03f8f81c                _do_setenv
                0x03f8fc7c                do_setenv
                0x03f8fcb8                setenv
                0x03f8fce8                getenv
                0x03f8fd68                getenv_r
 .text          0x03f8fe24     0x1080 common/libcommon.a(cmd_usb.o)
                0x03f8fe2c                do_usbboot
                0x03f901e8                usb_get_class_desc
                0x03f90294                usb_display_class_sub
                0x03f90408                usb_display_string
                0x03f9043c                usb_display_desc
                0x03f90568                usb_display_conf_desc
                0x03f90614                usb_display_if_desc
                0x03f9069c                usb_display_ep_desc
                0x03f90758                usb_display_config
                0x03f907e4                usb_show_tree_graph
                0x03f909fc                usb_show_tree
                0x03f90a2c                do_usb
 .text          0x03f90ea4      0xcd8 common/libcommon.a(command.o)
                0x03f90ea4                do_echo
                0x03f90f24                do_version
                0x03f90f44                var_complete
                0x03f90fcc                do_exit
                0x03f90ffc                do_test
                0x03f91464                find_cmd
                0x03f914f8                do_help
                0x03f916d4                install_auto_complete
                0x03f91700                cmd_auto_complete
 .text          0x03f91b7c      0x57c common/libcommon.a(console.o)
                0x03f91c20                serial_printf
                0x03f91c64                fgetc
                0x03f91c90                ftstc
                0x03f91cbc                fputc
                0x03f91ce4                fputs
                0x03f91d0c                fprintf
                0x03f91d54                getc
                0x03f91d6c                tstc
                0x03f91d84                putc
                0x03f91da0                puts
                0x03f91dbc                printf
                0x03f91e00                vprintf
                0x03f91e34                ctrlc
                0x03f91e80                disable_ctrlc
                0x03f91e98                had_ctrlc
                0x03f91ea8                clear_ctrlc
                0x03f91ebc                dbg
                0x03f91ec8                console_assign
                0x03f91f58                console_init_f
                0x03f91f68                console_init_r
 .text          0x03f920f8      0x104 common/libcommon.a(devices.o)
                0x03f920f8                device_register
                0x03f9211c                devices_init
                0x03f921e0                devices_done
 .text          0x03f921fc      0xfd0 common/libcommon.a(dlmalloc.o)
                0x03f921fc                malloc_bin_reloc
                0x03f9223c                malloc_trim
                0x03f9230c                free
                0x03f92538                cfree
                0x03f9253c                malloc
                0x03f92ab8                calloc
                0x03f92b94                memalign
                0x03f92ca4                pvalloc
                0x03f92cbc                valloc
                0x03f92cc8                realloc
                0x03f93118                malloc_usable_size
                0x03f93158                mallopt
 .text          0x03f931cc      0x270 common/libcommon.a(env_common.o)
                0x03f931cc                env_get_char_memory
                0x03f93210                env_crc_update
                0x03f9323c                env_get_addr
                0x03f93260                env_relocate
                0x03f93300                env_complete
 .text          0x03f9343c      0x3a0 common/libcommon.a(env_flash.o)
                0x03f9343c                env_get_char_spec
                0x03f93448                env_init
                0x03f93550                saveenv
                0x03f9369c                env_relocate_spec
 .text          0x03f937dc       0xb4 common/libcommon.a(exports.o)
                0x03f937e0                get_version
                0x03f937e8                jumptable_init
 .text          0x03f93890      0x46c common/libcommon.a(wmt_cmd_display.o)
                0x03f9396c                display_init
                0x03f93abc                display_clear
 .text          0x03f93cfc      0x790 common/libcommon.a(minivgui.o)
                0x03f93d50                mv_initPrimary
                0x03f93de8                mv_drawLine
                0x03f93e84                mv_drawRect
                0x03f93ef0                mv_fillRect
                0x03f93f4c                mv_loadBmp
                0x03f942f4                mv_textOut
 .text          0x03f9448c      0x580 common/libcommon.a(uboot-vpp.o)
                0x03f9448c                uboot_vpp_alloc_framebuffer
                0x03f94540                lcd_poweron_ctl
                0x03f94664                vpp_mod_init
                0x03f94668                vpp_device_init
                0x03f946a8                wmt_graphic_init
 .text          0x03f94a0c      0x120 common/libcommon.a(cmd_mbit.o)
                0x03f94a0c                excute_reg_op
 .text          0x03f94b2c      0x25c common/libcommon.a(cmd_textout.o)
                0x03f94bb0                do_textout
 .text          0x03f94d88      0x344 common/libcommon.a(env_parse.o)
                0x03f94d88                parse_gpio_operation
                0x03f94e54                parse_pwm_params
 .text          0x03f950cc      0x37c common/libcommon.a(flash.o)
                0x03f950cc                flash_protect
                0x03f9519c                addr2info
                0x03f9520c                flash_write
                0x03f95368                flash_perror
 .text          0x03f95448     0x1bbc common/libcommon.a(hush.o)
                0x03f95cb4                simple_itoa
                0x03f95d10                new_pipe
                0x03f95dbc                reserved_word
                0x03f9605c                mapset
                0x03f96080                update_ifs_map
                0x03f960f0                parse_string_outer
                0x03f96f48                parse_file_outer
                0x03f96f8c                u_boot_hush_start
 .text          0x03f97004      0x3d0 common/libcommon.a(lists.o)
                0x03f97004                NewHandle
                0x03f97060                DisposeHandle
                0x03f97080                GetHandleSize
                0x03f97088                SetHandleSize
                0x03f97104                ListCreate
                0x03f97164                ListSetAllocationPolicy
                0x03f97178                ListDispose
                0x03f9717c                ListInsertItems
                0x03f97340                ListInsertItem
                0x03f97348                ListGetItems
                0x03f97384                ListGetPtrToItem
                0x03f973b0                ListGetDataPtr
                0x03f973bc                ListGetItemSize
                0x03f973c8                ListNumItems
 .text          0x03f973d4      0x518 common/libcommon.a(miiphyutil.o)
                0x03f973d4                miiphy_init
                0x03f973f0                miiphy_register
                0x03f974cc                miiphy_set_current_dev
                0x03f97528                miiphy_get_current_dev
                0x03f97540                miiphy_read
                0x03f975cc                miiphy_write
                0x03f97658                miiphy_listdev
                0x03f976c0                miiphy_info
                0x03f9774c                miiphy_reset
                0x03f977ec                miiphy_speed
                0x03f9786c                miiphy_duplex
 .text          0x03f978ec      0x2e0 common/libcommon.a(s_record.o)
                0x03f97960                srec_decode
 .text          0x03f97bcc     0x1434 common/libcommon.a(usb.o)
                0x03f97c34                wait_ms
                0x03f97c54                usb_disable_asynch
                0x03f97c6c                usb_submit_int_msg
                0x03f97c70                usb_control_msg
                0x03f97d70                usb_bulk_msg
                0x03f97dd0                usb_maxpacket
                0x03f97df0                usb_set_maxpacket
                0x03f97e50                usb_parse_config
                0x03f97f6c                usb_clear_halt
                0x03f9800c                usb_get_descriptor
                0x03f98068                usb_get_configuration_no
                0x03f980c4                usb_set_address
                0x03f98100                usb_set_interface
                0x03f98194                usb_set_configuration
                0x03f981f4                usb_set_protocol
                0x03f98240                usb_set_idle
                0x03f98294                usb_get_report
                0x03f982f4                usb_get_class_descriptor
                0x03f98354                usb_get_string
                0x03f984c4                usb_string
                0x03f98560                usb_get_dev_index
                0x03f98590                usb_alloc_new_device
                0x03f98640                usb_get_hub_descriptor
                0x03f98694                usb_clear_hub_feature
                0x03f986e0                usb_clear_port_feature
                0x03f9872c                usb_set_port_feature
                0x03f987bc                usb_get_hub_status
                0x03f98804                usb_get_port_status
                0x03f98858                usb_hub_reset
                0x03f9886c                usb_stop
                0x03f9888c                usb_hub_allocate
                0x03f988d4                hub_port_reset
                0x03f98974                usb_hub_probe
                0x03f989cc                usb_new_device
                0x03f98bac                usb_hub_port_connect_change
                0x03f98c94                usb_hub_configure
                0x03f98e9c                usb_scan_devices
                0x03f98f2c                usb_init
                0x03f98fcc                portspeed
 .text          0x03f99000     0x1348 common/libcommon.a(usb_storage.o)
                0x03f992e8                usb_stor_get_dev
                0x03f992fc                usb_show_progress
                0x03f99308                usb_stor_read
                0x03f994f0                usb_stor_info
                0x03f99558                usb_stor_BBB_comdat
                0x03f99630                usb_stor_CB_comdat
                0x03f99874                usb_stor_CBI_get_status
                0x03f99944                usb_stor_CB_transport
                0x03f99b44                usb_stor_BBB_clear_endpt_stall
                0x03f99b90                usb_stor_BBB_transport
                0x03f99d48                usb_storage_probe
                0x03f99f24                usb_stor_get_info
                0x03f9a158                usb_stor_scan
 .text          0x03f9a348      0x3c0 common/libcommon.a(pwm.o)
                0x03f9a348                lcd_blt_set_level
                0x03f9a34c                lcd_blt_set_freq
                0x03f9a350                pwm_set_control
                0x03f9a390                pwm_set_scalar
                0x03f9a3cc                pwm_set_period
                0x03f9a408                pwm_set_duty
                0x03f9a444                pwm_get_period
                0x03f9a45c                pwm_get_duty
                0x03f9a474                set_lcd_power
                0x03f9a500                pwm_set_gpio
                0x03f9a5cc                pwm_set_enable
                0x03f9a628                lcd_blt_enable
                0x03f9a62c                lcd_blt_set_pwm
 .text          0x03f9a708      0x184 common/libcommon.a(wmt-ost.o)
                0x03f9a708                wmt_write_ostc
                0x03f9a750                wmt_init_ost
                0x03f9a7b0                wmt_read_ostc
                0x03f9a848                wmt_delayus
 .text          0x03f9a88c     0x1d38 common/libcommon.a(govrh.o)
                0x03f9a88c                govrh_set_data_format
                0x03f9a9a8                govrh_set_MIF_enable
                0x03f9a9c0                govrh_set_colorbar
                0x03f9aa10                govrh_set_fb_addr
                0x03f9aa40                govrh_get_color_format
                0x03f9aabc                govrh_get_tg
                0x03f9ac58                govrh_get_fb_addr
                0x03f9ac88                govrh_get_int_status
                0x03f9aca4                govrh_clean_int_status
                0x03f9acbc                govrh_set_tg_enable
                0x03f9ad3c                govrh_set_clock
                0x03f9adc4                govrh_set_tg1
                0x03f9af0c                govrh_set_tg
                0x03f9af40                govrh_set_tg2
                0x03f9b080                govrh_set_int_enable
                0x03f9b0b8                govrh_set_dvo_enable
                0x03f9b12c                govrh_set_dvo_sync_polar
                0x03f9b164                govrh_get_dvo_color_format
                0x03f9b1ac                govrh_set_csc_mode
                0x03f9b39c                govrh_reg_dump
                0x03f9ba1c                govrh_set_dvo_color_format
                0x03f9baa0                govrh_set_dvo_outdatw
                0x03f9bafc                govrh_set_dvo_clock_delay
                0x03f9bb38                govrh_set_vga_enable
                0x03f9bb90                govrh_set_VGA_sync
                0x03f9bbd0                govrh_set_VGA_sync_polar
                0x03f9bc08                govrh_DAC_set_sense_sel
                0x03f9bc68                govrh_DAC_set_sense_value
                0x03f9bcb8                govrh_DAC_get_connect
                0x03f9bce0                govrh_DAC_set_pwrdn
                0x03f9bcf8                govrh_DAC_monitor_sense
                0x03f9bd70                govrh_set_contrast
                0x03f9bdbc                govrh_get_contrast
                0x03f9bdd0                govrh_set_brightness
                0x03f9bde8                govrh_get_brightness
                0x03f9bdfc                govrh_set_source_format
                0x03f9be30                govrh_set_output_format
                0x03f9be48                govrh_set_fb_info
                0x03f9bec4                govrh_set_framebuffer
                0x03f9bf28                govrh_get_fb_info
                0x03f9bfa4                govrh_set_fifo_index
                0x03f9bfbc                govrh_set_reg_level
                0x03f9c018                govrh_set_reg_update
                0x03f9c030                govrh_set_timing
                0x03f9c240                govrh_get_framebuffer
                0x03f9c290                govrh_set_media_format
                0x03f9c2a8                govrh_IGS_set_mode
                0x03f9c300                govrh_IGS_set_RGB_swap
                0x03f9c318                govrh_set_dual_disp
                0x03f9c340                govrh_init
                0x03f9c458                govrh_mod_init
 .text          0x03f9c5c4      0x284 common/libcommon.a(lcd.o)
                0x03f9c5c4                lcd_check_plugin
                0x03f9c5dc                lcd_config
                0x03f9c630                lcd_set_power_down
                0x03f9c648                lcd_panel_register
                0x03f9c674                lcd_get_parm
                0x03f9c6a4                lcd_init
                0x03f9c73c                lcd_set_mode
                0x03f9c81c                lcd_module_init
 .text          0x03f9c848      0x214 common/libcommon.a(lvds.o)
                0x03f9c848                lvds_set_power_down
                0x03f9c860                lvds_set_enable
                0x03f9c8a0                lvds_set_rgb_type
                0x03f9c8b8                lvds_get_colfmt
                0x03f9c8c0                lvds_reg_dump
                0x03f9c9b8                lvds_init
 .text          0x03f9ca5c     0x1944 common/libcommon.a(vpp.o)
                0x03f9ca5c                vpp_get_chipid
                0x03f9ca6c                vpp_cache_sync
                0x03f9ca78                vpp_set_dbg_gpio
                0x03f9cb40                vpp_check_dbg_level
                0x03f9cb84                vpp_mod_unregister
                0x03f9cbd4                vpp_mod_register
                0x03f9cc88                vpp_mod_get_base
                0x03f9cca4                vpp_mod_get_fb_base
                0x03f9ccb8                vpp_mod_get_framebuf
                0x03f9cccc                vpp_clr_framebuf
                0x03f9cdb0                vpp_get_fb_field
                0x03f9cdbc                vpp_get_base_clock
                0x03f9cddc                vpp_calculate_diff
                0x03f9cdec                vpp_calculate_clock
                0x03f9d0dc                vpp_check_value
                0x03f9d0fc                vpp_show_timing
                0x03f9d1c4                vpp_show_framebuf
                0x03f9d264                vpp_show_view
                0x03f9d2d8                vpp_trans_timing
                0x03f9d444                vpp_mod_set_timing
                0x03f9d4d8                vpp_check_csc_mode
                0x03f9d528                vpp_set_vout_resolution
                0x03f9d560                vpp_get_gcd
                0x03f9d578                vpp_check_scale_ratio
                0x03f9d6c4                vpp_calculate_scale_ratio
                0x03f9d894                vpp_check_bilinear_arg
                0x03f9d95c                vpp_get_video_mode_fps
                0x03f9da00                vpp_get_video_mode
                0x03f9db38                vpp_get_video_mode_ext
                0x03f9db58                vpp_set_video_mode
                0x03f9db68                vpp_set_video_quality
                0x03f9db6c                vpp_calculate_y_crop
                0x03f9db7c                vpp_calculate_c_crop
                0x03f9dbe8                vpp_set_vppm_int_enable
                0x03f9dbec                vpp_reg_dump
                0x03f9dc60                vpp_convert_colfmt
                0x03f9de00                vpp_set_power_mgr
                0x03f9de04                vpp_backup_reg
                0x03f9de54                vpp_restore_reg
                0x03f9de94                vpp_backup_reg2
                0x03f9dec0                vpp_restore_reg2
                0x03f9def0                vpp_init
                0x03f9e154                vpp_config
 .text          0x03f9e3a0     0x1244 common/libcommon.a(hdmi.o)
                0x03f9e3a0                hdmi_reg32_write
                0x03f9e3f8                hdmi_ecc
                0x03f9e4f8                hdmi_checksum
                0x03f9e544                hdmi_set_enable
                0x03f9e574                hdmi_set_dvi_enable
                0x03f9e58c                hdmi_set_sync_low_active
                0x03f9e5c4                hdmi_set_output_colfmt
                0x03f9e61c                hdmi_get_output_colfmt
                0x03f9e654                hdmi_get_plugin
                0x03f9e668                hdmi_get_plug_status
                0x03f9e680                hdmi_clear_plug_status
                0x03f9e6b4                hdmi_enable_plugin
                0x03f9e6ec                hdmi_write_fifo
                0x03f9e768                hdmi_read_fifo
                0x03f9e7d4                hdmi_DDC_check_status
                0x03f9e888                hdmi_DDC_set_freq
                0x03f9e8bc                hdmi_DDC_reset
                0x03f9e8f8                hdmi_DDC_read_func
                0x03f9eba4                hdmi_DDC_read
                0x03f9ebec                hdmi_audio_enable
                0x03f9ec04                hdmi_audio_mute
                0x03f9ec1c                hdmi_write_packet
                0x03f9ecd8                hdmi_tx_null_packet
                0x03f9ece8                hdmi_tx_general_control_packet
                0x03f9ed2c                hdmi_tx_avi_infoframe_packet
                0x03f9ede0                hdmi_tx_audio_infoframe_packet
                0x03f9ee50                hdmi_set_audio_n_cts
                0x03f9eefc                hdmi_config_audio
                0x03f9f0c8                hdmi_config_video
                0x03f9f0e8                hdmi_set_option
                0x03f9f144                hdmi_config
                0x03f9f2ac                hdmi_set_cp_enable
                0x03f9f2e4                hdmi_check_cp_int
                0x03f9f338                hdmi_get_bksv
                0x03f9f394                hdmi_check_cp_dev_cnt
                0x03f9f408                hdmi_check_plugin
                0x03f9f410                hdmi_reg_dump
                0x03f9f414                hdmi_set_cypher
                0x03f9f458                hdmi_init
 .text          0x03f9f5e4     0x1b94 common/libcommon.a(vout-wmt.o)
                0x03fa05e0                vout_set_int_type
                0x03fa0610                vo_set_govr_timing
                0x03fa0ac4                vo_vga_plug_detect
                0x03fa0bb8                vo_set_lcd_id
                0x03fa0bc8                vo_get_lcd_id
                0x03fa0bd8                vo_hdmi_cp_set_enable_tmr
                0x03fa0e38                vout_extdev_probe
                0x03fa0ecc                vout_intdev_probe
                0x03fa0f30                vout_init
                0x03fa1158                vout_exit
 .text          0x03fa1178       0x28 common/libcommon.a(lcd-oem.o)
                0x03fa1178                lcd_oem_get_parm
                0x03fa1190                lcd_oem_init
 .text          0x03fa11a0       0x28 common/libcommon.a(lcd-AUO-A080SN01.o)
                0x03fa11a0                lcd_a080sn01_get_parm
                0x03fa11b8                lcd_a080sn01_init
 .text          0x03fa11c8       0x24 common/libcommon.a(lcd-INNOLUX-AT070TN83.o)
                0x03fa11d0                lcd_at070tn83_get_parm
                0x03fa11dc                lcd_at070tn83_init
 .text          0x03fa11ec       0x3c common/libcommon.a(lcd-CHILIN-LW700at9003.o)
                0x03fa11ec                lcd_lw700at9003_get_parm
                0x03fa1218                lcd_lw700at9003_init
 .text          0x03fa1228       0x34 common/libcommon.a(lcd-EKING-EK08009-70135.o)
                0x03fa1228                lcd_ek08009_get_parm
                0x03fa124c                lcd_ek08009_init
 .text          0x03fa125c       0x34 common/libcommon.a(lcd-HANNSTAR-HSD101PFW2.o)
                0x03fa125c                lcd_HSD101PFW2_get_parm
                0x03fa1280                lcd_HSD101PFW2_init
 .text          0x03fa1290      0x1fc common/libcommon.a(vt1632.o)
                0x03fa1290                vt1632_config
                0x03fa1298                vt1632_get_edid
                0x03fa12a0                vt1632_set_power_down
                0x03fa12fc                vt1632_set_mode
                0x03fa1368                vt1632_init
                0x03fa13f8                vt1632_check_plugin
                0x03fa1474                vt1632_module_init
 .text          0x03fa148c      0xf3c common/libcommon.a(sil902x.o)
                0x03fa14a8                sil902x_set_power_down
                0x03fa14ac                sil902x_set_mode
                0x03fa1570                ReadModifyWrite
                0x03fa15a0                sil902x_CP_check_supported
                0x03fa1610                sil902x_CP_check_AKSV
                0x03fa1660                sil902x_CP_get_bksv
                0x03fa1688                sil902x_CP_init
                0x03fa16d8                sil902x_CP_enable
                0x03fa172c                sil902x_TMDS_enable
                0x03fa1748                sil902x_CP_restart
                0x03fa1768                sil902x_CP_check_status
                0x03fa184c                sil902x_poll
                0x03fa18b8                sil902x_enable_access
                0x03fa1910                sil902x_do_read_edid
                0x03fa1a00                sil902x_read_edid
                0x03fa1a64                sil902x_get_vmode
                0x03fa1c74                sil902x_get_audio
                0x03fa1d4c                sil902x_set_audio
                0x03fa1da0                sil902x_active
                0x03fa2004                sil902x_config
                0x03fa2024                sil902x_set_power_mode
                0x03fa20f4                sil902x_check_plugin
                0x03fa21a0                sil902x_interrupt
                0x03fa2264                sil902x_set_interrupt
                0x03fa2290                sil902x_init
                0x03fa22d0                sil902x_clr_interrupt
                0x03fa22f0                sil902x_mute_audio
                0x03fa23b0                sil902x_module_init
 .text          0x03fa23c8      0x320 common/libcommon.a(vpp-osif.o)
                0x03fa23c8                inl
                0x03fa23d0                outl
                0x03fa23d8                vppif_reg8_in
                0x03fa23e0                vppif_reg8_out
                0x03fa23ec                vppif_reg16_in
                0x03fa23f4                vppif_reg16_out
                0x03fa2400                vppif_reg32_in
                0x03fa2404                vppif_reg32_out
                0x03fa2424                vppif_reg32_write
                0x03fa245c                vppif_reg32_read
                0x03fa2478                vppif_reg32_mask
                0x03fa2480                vpp_request_irq
                0x03fa2488                vpp_free_irq
                0x03fa248c                wmt_getsyspara
                0x03fa24e4                vpp_parse_param
                0x03fa256c                vpp_lock
                0x03fa2570                vpp_unlock
                0x03fa2574                vpp_i2c_write
                0x03fa25cc                vpp_i2c_read
                0x03fa2628                vpp_i2c_enhanced_ddc_read
 .text          0x03fa26e8      0x514 common/libcommon.a(vout.o)
                0x03fa26e8                vout_change_status
                0x03fa2794                vout_op
                0x03fa27dc                vout_control
                0x03fa287c                vout_set_blank
                0x03fa288c                vout_set_mode
                0x03fa2980                vout_config
                0x03fa298c                vout_suspend
                0x03fa2998                vout_resume
                0x03fa29a4                vout_chkplug
                0x03fa29c4                vout_get_edid
                0x03fa2a58                vout_register
                0x03fa2abc                vout_unregister
                0x03fa2afc                vout_get_info
                0x03fa2b0c                vout_device_register
                0x03fa2b4c                vout_get_device
                0x03fa2b64                vout_find_video_mode
 .text          0x03fa2bfc      0x6c0 common/libcommon.a(sw_i2c.o)
                0x03fa2c04                wmt_swi2c_lock
                0x03fa2c08                wmt_swi2c_delay
                0x03fa2c0c                wmt_swi2c_SetSDAInput
                0x03fa2c48                wmt_swi2c_SetSDAOutput
                0x03fa2c84                wmt_swi2c_GetSDA
                0x03fa2cac                wmt_swi2c_GetSCL
                0x03fa2cd4                wmt_swi2c_SetSDA
                0x03fa2d7c                wmt_swi2c_SetSCL
                0x03fa2e24                wmt_swi2c_SetData
                0x03fa2e70                wmt_swi2c_SetClock
                0x03fa2ec8                wmt_swi2c_StartI2C
                0x03fa2f24                wmt_swi2c_StopI2C
                0x03fa2f7c                wmt_swi2c_WriteAck
                0x03fa3000                wmt_swi2c_ReadAck
                0x03fa30cc                wmt_swi2c_tx
                0x03fa3120                wmt_swi2c_rx
                0x03fa3180                wmt_swi2c_read
                0x03fa3238                wmt_swi2c_write
 .text          0x03fa32bc      0xa38 common/libcommon.a(parse-edid.o)
                0x03fa32f8                edid_dump
                0x03fa3358                edid_checksum
                0x03fa3384                edid_parse_v1
                0x03fa36bc                edid_parse_CEA
                0x03fa38ec                edid_parse
                0x03fa3968                edid_find_support
                0x03fa3b48                edid_parse_option
                0x03fa3c94                edid_check_block
                0x03fa3ce4                edid_get_hdmi_phy_addr
 .text          0x03fa3cf4      0x104 lib_generic/libgeneric.a(crc32.o)
                0x03fa3cf4                crc32
 .text          0x03fa3df8        0x0 lib_generic/libgeneric.a(ctype.o)
 .text          0x03fa3df8       0xc0 lib_generic/libgeneric.a(display_options.o)
                0x03fa3df8                display_options
                0x03fa3e18                print_size
 .text          0x03fa3eb8      0x584 lib_generic/libgeneric.a(string.o)
                0x03fa3ed4                strnicmp
                0x03fa3f48                strcpy
                0x03fa3f60                strncpy
                0x03fa3f80                strcat
                0x03fa3fac                strncat
                0x03fa3ff4                strcmp
                0x03fa401c                strncmp
                0x03fa4058                strchr
                0x03fa408c                strlen
                0x03fa40a8                strrchr
                0x03fa40e4                strnlen
                0x03fa4108                strdup
                0x03fa413c                strspn
                0x03fa417c                strpbrk
                0x03fa41b8                strtok
                0x03fa4230                strsep
                0x03fa4264                strswab
                0x03fa42b0                memset
                0x03fa42c8                bcopy
                0x03fa42e8                memcpy
                0x03fa4304                memmove
                0x03fa4348                memcmp
                0x03fa4380                memscan
                0x03fa43a8                strstr
                0x03fa4408                memchr
 .text          0x03fa443c      0x860 lib_generic/libgeneric.a(vsprintf.o)
                0x03fa4698                simple_strtoul
                0x03fa4750                simple_strtol
                0x03fa4778                simple_strtoull
                0x03fa4860                vsprintf
                0x03fa4c2c                sprintf
                0x03fa4c50                panic
 .text          0x03fa4c9c     0x2b80 lib_generic/libgeneric.a(zlib.o)
                0x03fa5560                adler32
                0x03fa583c                inflateReset
                0x03fa5898                inflateEnd
                0x03fa592c                inflateInit2
                0x03fa5a7c                inflateInit
                0x03fa5a84                inflate
                0x03fa75f8                inflateIncomp
                0x03fa7724                inflateSync
 .text          0x03fa781c       0x50 board/wmt/libwmt.a(wmt.o)
                0x03fa781c                board_init
                0x03fa7844                misc_init_r
                0x03fa784c                dram_init
                0x03fa7868                __aeabi_unwind_cpp_pr0
 .text          0x03fa786c      0x468 board/wmt/libwmt.a(flash.o)
                0x03fa786c                get_boot_flash_type
                0x03fa7914                get_boot_nor_flash_bit_type
                0x03fa7948                get_boot_nand_flash_bit_type
                0x03fa7998                flash_init
                0x03fa7bcc                flash_print_info
                0x03fa7c18                flash_erase
                0x03fa7c6c                write_buff
 .text          0x03fa7cd4       0x24 board/wmt/libwmt.a(main.o)
                0x03fa7cd4                wmt_post
 .text          0x03fa7cf8      0x6c8 board/wmt/libwmt.a(spi_flash.o)
                0x03fa7dc4                spi_flash_init
                0x03fa80c4                spi_flash_print_info
                0x03fa817c                spi_flash_erase
                0x03fa8364                spi_write_buff
 .text          0x03fa83c0       0x1c board/wmt/libwmt.a(nand_flash.o)
                0x03fa83c0                nand_flash_init
                0x03fa83c8                nand_flash_print_info
                0x03fa83cc                nand_flash_erase
                0x03fa83d4                nand_write_buff
 .text          0x03fa83dc      0xd1c board/wmt/libwmt.a(nor_flash_8bit.o)
                0x03fa8418                nor_flash_8b_init
                0x03fa88f0                nor_flash_8b_print_info
                0x03fa8bd8                nor_flash_8b_erase
                0x03fa8e4c                nor_flash_8b_write_buff
 .text          0x03fa90f8     0x115c board/wmt/libwmt.a(nor_flash_16bit.o)
                0x03fa9128                nor_flash_16b_init
                0x03fa9a44                nor_flash_16b_print_info
                0x03fa9c88                nor_flash_16b_erase
                0x03fa9f00                nor_flash_16b_write_buff
 .text          0x03faa254     0x1018 board/wmt/libwmt.a(wmt_clk.o)
                0x03faa5f0                auto_pll_divisor
                0x03fab00c                manu_pll_divisor
 .text          0x03fab26c     0x1100 board/wmt/libwmt.a(ehci-hcd.o)
                0x03fab3c8                ehci_submit_root
                0x03fab878                ehci_hcd_init
                0x03fab89c                ehci_hcd_stop
                0x03fab8ac                usb_lowlevel_stop
                0x03fab8b0                strtochar
                0x03fab8d8                ehci_config_port_owner
                0x03faba74                ehci_disable_port_owner
                0x03fabaf8                ehci_detect_device
                0x03fabbc0                ehci_enable_port
                0x03fabca8                usb_ehci_initial
                0x03fabcd8                submit_int_msg
                0x03fabce0                usb_check_td
                0x03fabd28                usb_check_bulk_td
                0x03fac0b8                submit_control_msg
                0x03fac0e8                submit_bulk_msg
                0x03fac11c                parse_usb_param
                0x03fac1d0                usb_lowlevel_init
 .text          0x03fac36c     0x1604 board/wmt/libwmt.a(usb_uhci.o)
                0x03fac448                usb_fill_td
                0x03fac4e4                usb_fill_qh
                0x03fac534                usb_uhci_td_stat
                0x03fac588                usb_get_td_status
                0x03fac678                submit_uhci_control_msg
                0x03fac818                submit_uhci_bulk_msg
                0x03fac9a0                uhci_alloc_int_td
                0x03fac9e0                submit_uhci_int_msg
                0x03facad8                reset_hc
                0x03facb18                start_hc
                0x03facc9c                reset_hc2
                0x03faccdc                start_hc2
                0x03face4c                usb_init_skel
                0x03facf8c                usb_check_skel
                0x03facff4                usb_check_int_chain
                0x03fad16c                handle_usb_interrupt
                0x03fad1c8                uhci_lowlevel_init
                0x03fad27c                uhci_lowlevel_stop
                0x03fad2b0                uhci_submit_rh_msg
 .text          0x03fad970      0x6a0 board/wmt/libwmt.a(wmt_i2c.o)
                0x03fad9d0                i2c_init
                0x03fadac4                i2c_transfer
                0x03fade78                i2c_probe
                0x03fade80                i2c_read
                0x03fadf1c                i2c_write
                0x03fadfd0                i2c_reg_read
                0x03fadff0                i2c_reg_write
 .text          0x03fae010      0x664 board/wmt/libwmt.a(wmt_i2c_1.o)
                0x03fae070                i2c1_init
                0x03fae128                i2c1_transfer
                0x03fae4dc                i2c1_probe
                0x03fae4e4                i2c1_read
                0x03fae580                i2c1_write
                0x03fae634                i2c1_reg_read
                0x03fae654                i2c1_reg_write
 .text          0x03fae674       0xd4 cpu/arm920t/libarm920t.a(cpu.o)
                0x03fae6b0                cpu_init
                0x03fae6b8                cleanup_before_linux
                0x03fae6e0                do_reset
                0x03fae6f8                icache_enable
                0x03fae714                icache_disable
                0x03fae730                icache_status
 .text          0x03fae748      0x190 cpu/arm920t/wmt/libwmt.a(serial.o)
                0x03fae748                serial_putc
                0x03fae778                serial_puts
                0x03fae798                serial_getc
                0x03fae7bc                serial_tstc
                0x03fae7dc                serial_setbrg
                0x03fae8ac                serial_init
 .text          0x03fae8d8       0x38 cpu/arm920t/wmt/libwmt.a(ether.o)
                0x03fae8d8                eth_init
                0x03fae8dc                eth_send
                0x03fae8e0                eth_rx
                0x03fae8e4                eth_halt
                0x03fae8e8                wmt_miiphy_read
                0x03fae8f8                wmt_miiphy_write
                0x03fae908                wmt_miiphy_initialize
 .text          0x03fae910      0x6b4 cpu/arm920t/wmt/libwmt.a(gmacif.o)
                0x03fae910                gmac_startio
                0x03faed64                gmac_send
                0x03faee98                gmac_receive
                0x03faef68                gmac_halt
                0x03faef8c                mii_read
                0x03faefa8                mii_write
 .text          0x03faefc4      0xca4 cpu/arm920t/wmt/libwmt.a(dma.o)
                0x03faefc4                disable_dma
                0x03faefe0                enable_dma
                0x03faf014                request_dma
                0x03faf118                clear_dma
                0x03faf188                free_dma
                0x03faf210                setup_dma
                0x03faf328                dma_busy
                0x03faf380                dma_complete
                0x03faf3d8                handle_dma_irq
                0x03faf438                prepare_dma_descript
                0x03faf4c8                start_dma
                0x03faf5c8                prepare_dma_long_descript
                0x03faf610                wake_dma_channel
                0x03faf630                add_descript
                0x03faf69c                init_descriptstack
                0x03faf750                reset_descriptstack
                0x03faf790                free_descriptstack
                0x03faf7b4                init_dma
                0x03faf924                set_descript
                0x03fafad4                handle_transfer
 .text          0x03fafc68     0x2dac cpu/arm920t/wmt/libwmt.a(mmc.o)
                0x03fafc68                Change_SD_host
                0x03fafd84                SD_Init_PDMA
                0x03fafdb8                sd_init_long_desc
                0x03fafe14                sd_pdma_handler
                0x03fafee4                sd_free_pdma
                0x03faff00                card_nop
                0x03faff04                sd_command
                0x03fb0014                sd_send_scr
                0x03fb008c                sd_app_command
                0x03fb0124                sd_alloc_desc_pool
                0x03fb012c                sd_init_short_desc
                0x03fb0164                sd_init_short_desc_with_end
                0x03fb018c                sd_config_desc
                0x03fb01cc                sd_dump_memory
                0x03fb01d0                sd_config_pdma
                0x03fb0210                sdmmcSwitch
                0x03fb03bc                sdmmcSendExCSD
                0x03fb0488                SD_Init
                0x03fb10e0                SD_Initialization
                0x03fb114c                mmc_get_dev
                0x03fb1184                mmc_block_read_singleblock
                0x03fb126c                mmc_block_read_multiblock
                0x03fb1504                mmc_bread
                0x03fb1594                mmc_block_write_singleblock
                0x03fb16e4                mmc_block_write_multiblock
                0x03fb1998                mmc_bwrite
                0x03fb1a30                mmc_read
                0x03fb1ad0                mmc_write
                0x03fb1ad8                sd_set_clock
                0x03fb1fe0                mmc_ident
                0x03fb1fe8                mmc2info
                0x03fb1ffc                get_chip_version
                0x03fb20b4                SD_Controller_Powerup
                0x03fb2754                mmc_init
                0x03fb29b8                SD_card_inserted
 .text          0x03fb2a14      0x4d4 cpu/arm920t/wmt/libwmt.a(pcinet.o)
                0x03fb2a14                NPCIbIsRegBitsOn
                0x03fb2a44                NPCIbIsRegBitsOff
                0x03fb2a70                NPCIvRegBitsOn
                0x03fb2aa8                NPCIvRegBitsOff
                0x03fb2ae0                NPCIvReadManyConfigSpace
                0x03fb2af4                NPCIvReadRevisionId
                0x03fb2b00                NPCIbReadDeviceInfo
                0x03fb2be4                NPCIvInitialize
                0x03fb2c14                NPCIbPCIAlloc
                0x03fb2e60                pciconfigurationdump
 .text          0x03fb2ee8      0x948 cpu/arm920t/wmt/libwmt.a(gmii.o)
                0x03fb2ee8                GMIIbReadEmbeded
                0x03fb2f60                GMIIbWriteEmbeded
                0x03fb2fd4                GMIIbIsRegBitsOn
                0x03fb3004                GMIIbIsRegBitsOff
                0x03fb3030                GMIIbReadAllRegs
                0x03fb3078                GMIIvWaitForNwayCompleted
                0x03fb30dc                GMIIvSetLoopbackMode
                0x03fb3234                GMIIvSetDuplexMode
                0x03fb32cc                GMIIvSetSpeedMode
                0x03fb33f8                GMIIbIsAutoNegotiationOn
                0x03fb3404                GMIIbSafeSoftwareReset
                0x03fb3460                GMIIvScanAllPhy
                0x03fb3524                GMIIvSetActiveForcedPhy
                0x03fb35e8                GMIIbSetActiveLinkedPhy
                0x03fb3738                GMIIvInitialize
 .text          0x03fb3830      0x864 cpu/arm920t/wmt/libwmt.a(gmib.o)
                0x03fb3830                GSTAvClearAllCounter
                0x03fb383c                GSTAvClearAllSwMibCounter
                0x03fb3858                GSTAvUpdateEsrStatCounter
                0x03fb38f0                GSTAvUpdateIsrStatCounter
                0x03fb3abc                GSTAvUpdateRDStatCounter
                0x03fb3c6c                GSTAvUpdateRDStatCounterEx
                0x03fb3cbc                GSTAvUpdateTDStatCounter
                0x03fb3e38                GSTAvUpdateTDStatCounterEx
                0x03fb3e6c                GSTAvUpdateTDStatCounterTq0
                0x03fb3fd8                GSTAvClearHWMIBCounter
                0x03fb4014                GSTAvEnableHWMIBCounter
                0x03fb4024                GSTAvDisableHWMIBCounter
                0x03fb4034                GSTAvUpdateHWMIBCounter
 .text          0x03fb4094      0x47c cpu/arm920t/wmt/libwmt.a(galloct.o)
                0x03fb4094                GMEMvAllocate
                0x03fb40b0                GMEMvAllocateShared
                0x03fb40dc                GALCbAllocateRdrMemory
                0x03fb4164                GALCbAllocateTdSegMemory
                0x03fb41d0                GALCbAllocateTdrMemory
                0x03fb422c                GALCvChainRdrMemory
                0x03fb429c                dumprd
                0x03fb42a0                GALCvChainTdrMemory
                0x03fb4390                dumptd
                0x03fb43dc                GALCvFreeRdrMemory
                0x03fb4400                GALCvFreeTdrMemory
                0x03fb443c                GALCvFreeTdSegMemory
                0x03fb44a0                GALCvSetAllRdOwnerToMac
                0x03fb44d4                GALCvSetAllTdOwnerToMac
                0x03fb4508                GALCvSetDefaultRD
                0x03fb450c                GALCvSetDefaultTD
 .text          0x03fb4510      0xe7c cpu/arm920t/wmt/libwmt.a(gmac.o)
                0x03fb4510                GMACvReadAllRegs
                0x03fb45a8                GMACbIsRegBitsOn
                0x03fb45c0                GMACbIsRegBitsOff
                0x03fb45d4                GMACbyReadEECSR
                0x03fb45dc                GMACbyReadMIICR
                0x03fb45e4                GMACvWriteMIICR
                0x03fb45ec                GMACbyReadMultiAddr
                0x03fb45f8                GMACvWriteMultiAddr
                0x03fb4604                GMACbIsIntDisable
                0x03fb4614                GMACvSetMultiAddrByHash
                0x03fb465c                GMACvResetMultiAddrByHash
                0x03fb46a4                GMACbyGetBootRomSize
                0x03fb46b0                GMACvSetPhyId
                0x03fb46c8                GMACbyGetPhyId
                0x03fb46d4                GMACvSetRxThreshold
                0x03fb46e8                GMACvGetRxThreshold
                0x03fb46fc                GMACvSetDmaLength
                0x03fb4710                GMACvGetDmaLength
                0x03fb4720                GMACvSetLoopbackMode
                0x03fb4734                GMACbIsInLoopbackMode
                0x03fb4744                GMACbIsIn1GMode
                0x03fb477c                GMACbIsIn100MMode
                0x03fb47ec                GMACbIsInFullDuplexMode
                0x03fb47f8                GMACbIsCableLinkOk
                0x03fb4804                GMACvDisableMiiAutoPoll
                0x03fb4844                GMACvEnableMiiAutoPoll
                0x03fb48b8                GMACvSetPacketFilter
                0x03fb492c                GMACvSaveContext
                0x03fb49d8                GMACvRestoreContext
                0x03fb4a8c                GMACvTimer0MiniSDelay
                0x03fb4ae8                GMACvWriteEECSR
                0x03fb4af8                GMACvTimer0MicroSDelay
                0x03fb4b54                GMACbSoftwareReset
                0x03fb4bc4                GMACbSafeSoftwareReset
                0x03fb4c08                GMACbSafeRxOff
                0x03fb4c70                GMACbSafeTxOff
                0x03fb4cdc                GMACbStop
                0x03fb4d2c                GMACbSafeStop
                0x03fb4d6c                GMACbShutdown
                0x03fb4d9c                GMACiWriteVee
                0x03fb4db8                GMACLoadVEE
                0x03fb4ee0                GMACvInitialize
                0x03fb4fe4                GMACvSetVCAM
                0x03fb503c                GMACvSetMCAM
                0x03fb50a0                GMACvGetVCAM
                0x03fb5100                GMACvGetMCAM
                0x03fb5168                GMACvSetVCAMMask
                0x03fb5198                GMACvSetMCAMMask
                0x03fb51c8                GMACvGetVCAMMask
                0x03fb51f8                GMACvGetMCAMMask
                0x03fb522c                GMACvSetVCAMMaskByBR
                0x03fb526c                GMACvSetMCAMMaskByBR
                0x03fb52a8                GMACvGetVCAMMaskByBR
                0x03fb52e4                GMACvGetMCAMMaskByBR
                0x03fb531c                GMACvSetTqIndex
                0x03fb535c                dumpmac
 .text          0x03fb538c      0x8cc cpu/arm920t/wmt/libwmt.a(gadapter.o)
                0x03fb55d0                GADPuInitAll
                0x03fb5730                GADPbInitOne
                0x03fb5880                GADPbInitialize
                0x03fb5a50                GADPbBind
                0x03fb5c08                GADPbShutdown
 .text          0x03fb5c58       0xa0 cpu/arm920t/wmt/libwmt.a(mem.o)
                0x03fb5c58                MEMvAlign
                0x03fb5c94                MEMvAllocateShared
                0x03fb5cf0                MEMvCopy
                0x03fb5cf4                MEMvSet
 .text          0x03fb5cf8       0xec cpu/arm920t/wmt/libwmt.a(vpci.o)
                0x03fb5cf8                VPCIvReadB
                0x03fb5d08                VPCIvReadW
                0x03fb5d18                VPCIvReadD
                0x03fb5d28                VPCIvWriteB
                0x03fb5d34                VPCIvRegBitsOff
                0x03fb5d64                VPCIvRegBitsOn
                0x03fb5d94                VPCIvInitialize
                0x03fb5dcc                VPCIvWriteW
                0x03fb5dd8                VPCIvWriteD
 .text          0x03fb5de4      0x2ac cpu/arm920t/wmt/libwmt.a(upcix.o)
                0x03fb5de4                PCIXvReadB
                0x03fb5e14                PCIXvReadW
                0x03fb5e44                PCIXvReadD
                0x03fb5e68                PCIXvWriteB
                0x03fb5e94                PCIXvWriteW
                0x03fb5ec0                PCIXvWriteD
                0x03fb5ee0                PCIXvReadManyBytes
                0x03fb5f28                PCIXbFindDeviceInfo
 .text          0x03fb6090      0x330 cpu/arm920t/wmt/libwmt.a(gcard.o)
                0x03fb6090                GCARDvSetMediaLinkMode
                0x03fb6364                GCARDvSetLoopbackMode
                0x03fb6390                GCARDbSoftwareReset
 .text          0x03fb63c0      0xa18 cpu/arm920t/wmt/libwmt.a(gisr.o)
                0x03fb63c0                PCAvIntEnable
                0x03fb63d0                PCAvIntDisable
                0x03fb63e0                GISRvIsrForNetwork
                0x03fb6d88                ISRvIsrForNetwork_Card3
                0x03fb6da0                ISRvIsrForNetwork_Card2
                0x03fb6db4                ISRvIsrForNetwork_Card1
                0x03fb6dc8                ISRvIsrForNetwork_Card0
 .text          0x03fb6dd8      0x318 cpu/arm920t/wmt/libwmt.a(tconvert.o)
                0x03fb6dd8                CVTvBy6ToStr12
                0x03fb6e2c                CVTvStr12ToBy6
                0x03fb6e90                CVTvHexToAsc
                0x03fb6ee0                CVTvAscToHex
                0x03fb6fd8                CVTvIP4ToStr15
                0x03fb7088                CVTvStr15ToIP4
 .text          0x03fb70f0       0x4c cpu/arm920t/wmt/libwmt.a(tcrc.o)
                0x03fb70f0                CRCdwCrc32
                0x03fb7124                CRCdwGetCrc32
                0x03fb7138                CRCdwGetCrc32Ex
 .text          0x03fb713c      0x44c lib_arm/libarm.a(armlinux.o)
                0x03fb7248                do_bootm_linux
 .text          0x03fb7588        0x4 lib_arm/libarm.a(cache.o)
                0x03fb7588                flush_cache
 .text          0x03fb758c     0x1be0 fs/fat/libfat.a(fat.o)
                0x03fb77e0                disk_read
                0x03fb7dcc                disk_write
                0x03fb7efc                fat_register_device
                0x03fb8048                do_fat_read
                0x03fb89bc                do_fat_write
                0x03fb8fac                file_fat_detectfs
                0x03fb90f0                file_fat_ls
                0x03fb9100                file_fat_read
                0x03fb9138                file_fat_write
 .text          0x03fb916c      0x2b0 disk/libdisk.a(part.o)
                0x03fb916c                dev_print
                0x03fb9314                init_part
                0x03fb9330                get_partition_info
                0x03fb9358                print_part
 .text          0x03fb941c      0x4c4 disk/libdisk.a(part_dos.o)
                0x03fb9840                test_part_dos
                0x03fb9894                print_part_dos
                0x03fb98c0                get_partition_info_dos
 .text          0x03fb98e0       0x7c cpu/arm920t/wmt/libwmt.a(zde.o)
                0x03fb98e0                semi_bootloados
 .text          0x03fb995c      0x114 /root/Project/sdc1/AndroidPC_2.0/tools/arm-toolchain/bin/../lib/gcc/arm-none-eabi/4.5.2/libgcc.a(_udivsi3.o)
                0x03fb995c                __udivsi3
                0x03fb995c                __aeabi_uidiv
                0x03fb9a50                __aeabi_uidivmod
 .text          0x03fb9a70      0x148 /root/Project/sdc1/AndroidPC_2.0/tools/arm-toolchain/bin/../lib/gcc/arm-none-eabi/4.5.2/libgcc.a(_divsi3.o)
                0x03fb9a70                __aeabi_idiv
                0x03fb9a70                __divsi3
                0x03fb9b98                __aeabi_idivmod
 .text          0x03fb9bb8        0x4 /root/Project/sdc1/AndroidPC_2.0/tools/arm-toolchain/bin/../lib/gcc/arm-none-eabi/4.5.2/libgcc.a(_dvmd_tls.o)
                0x03fb9bb8                __aeabi_ldiv0
                0x03fb9bb8                __aeabi_idiv0
 .text          0x03fb9bbc       0x1c /root/Project/sdc1/AndroidPC_2.0/tools/arm-toolchain/bin/../lib/gcc/arm-none-eabi/4.5.2/libgcc.a(_ashldi3.o)
                0x03fb9bbc                __ashldi3
                0x03fb9bbc                __aeabi_llsl

.glue_7         0x03fb9bd8        0x0
 .glue_7        0x00000000        0x0 linker stubs

.glue_7t        0x03fb9bd8        0x0
 .glue_7t       0x00000000        0x0 linker stubs

.vfp11_veneer   0x03fb9bd8        0x0
 .vfp11_veneer  0x00000000        0x0 linker stubs

.v4_bx          0x03fb9bd8        0x0
 .v4_bx         0x00000000        0x0 linker stubs
                0x03fb9bd8                . = ALIGN (0x4)

.rodata         0x03fb9bd8     0x25dc
 *(.rodata)
 .rodata        0x03fb9bd8       0x80 cpu/arm920t/libarm920t.a(interrupts.o)
 .rodata        0x03fb9c58       0x26 lib_arm/libarm.a(board.o)
                0x03fb9c58                version_string
 .rodata        0x03fb9c7e        0x7 net/libnet.a(net.o)
 *fill*         0x03fb9c85        0x3 00
 .rodata        0x03fb9c88       0xb4 common/libcommon.a(cmd_bootm.o)
 .rodata        0x03fb9d3c       0x58 common/libcommon.a(cmd_mem.o)
 .rodata        0x03fb9d94       0x10 common/libcommon.a(cmd_dma.o)
 .rodata        0x03fb9da4       0x28 common/libcommon.a(cmd_nand.o)
 .rodata        0x03fb9dcc      0x840 common/libcommon.a(minivgui.o)
 .rodata        0x03fba60c       0x34 common/libcommon.a(usb_storage.o)
 .rodata        0x03fba640      0x1f8 common/libcommon.a(govrh.o)
 .rodata        0x03fba838      0xafc common/libcommon.a(vpp.o)
                0x03fba838                vpp_video_mode_table
                0x03fbb1ac                vpp_csc_parm
 .rodata        0x03fbb334       0xe8 common/libcommon.a(hdmi.o)
                0x03fbb348                hdmi_vic_info
 .rodata        0x03fbb41c       0xac common/libcommon.a(vout-wmt.o)
 .rodata        0x03fbb4c8      0x1b8 common/libcommon.a(sil902x.o)
 .rodata        0x03fbb680        0xa common/libcommon.a(parse-edid.o)
                0x03fbb680                edid_v1_descriptor_flag
                0x03fbb682                edid_v1_header
 *fill*         0x03fbb68a        0x2 00
 .rodata        0x03fbb68c      0x400 lib_generic/libgeneric.a(crc32.o)
 .rodata        0x03fbba8c       0x90 lib_generic/libgeneric.a(zlib.o)
 .rodata        0x03fbbb1c        0xc board/wmt/libwmt.a(flash.o)
 .rodata        0x03fbbb28      0x21c board/wmt/libwmt.a(nor_flash_16bit.o)
 .rodata        0x03fbbd44       0x3f board/wmt/libwmt.a(ehci-hcd.o)
 .rodata        0x03fbbd83       0x20 cpu/arm920t/wmt/libwmt.a(gmac.o)
 *fill*         0x03fbbda3        0x1 00
 .rodata        0x03fbbda4       0x10 cpu/arm920t/wmt/libwmt.a(gadapter.o)
 .rodata        0x03fbbdb4      0x400 cpu/arm920t/wmt/libwmt.a(tcrc.o)

.rodata.str1.1  0x03fbc1b4     0x98bc
 .rodata.str1.1
                0x03fbc1b4      0x264 cpu/arm920t/libarm920t.a(interrupts.o)
                                0x27b (size before relaxing)
 .rodata.str1.1
                0x03fbc418       0xff lib_arm/libarm.a(board.o)
                                0x101 (size before relaxing)
 .rodata.str1.1
                0x03fbc517      0x1ba net/libnet.a(net.o)
                                0x1c2 (size before relaxing)
 .rodata.str1.1
                0x03fbc6d1      0x174 net/libnet.a(tftp.o)
                                0x1b5 (size before relaxing)
 .rodata.str1.1
                0x03fbc845       0xcc net/libnet.a(bootp.o)
                                 0xfc (size before relaxing)
 .rodata.str1.1
                0x03fbc911       0x13 net/libnet.a(rarp.o)
                                 0x47 (size before relaxing)
 .rodata.str1.1
                0x03fbc924       0xe4 net/libnet.a(nfs.o)
                                0x16c (size before relaxing)
 .rodata.str1.1
                0x03fbca08      0x138 common/libcommon.a(main.o)
                                0x13b (size before relaxing)
 .rodata.str1.1
                0x03fbcb40       0xec common/libcommon.a(cmd_autoscript.o)
 .rodata.str1.1
                0x03fbcc2c       0xb2 common/libcommon.a(cmd_bdinfo.o)
 .rodata.str1.1
                0x03fbccde      0x103 common/libcommon.a(cmd_boot.o)
                                0x111 (size before relaxing)
 .rodata.str1.1
                0x03fbcde1      0x7a6 common/libcommon.a(cmd_bootm.o)
                                0x806 (size before relaxing)
 .rodata.str1.1
                0x03fbd587       0x67 common/libcommon.a(cmd_console.o)
                                 0x6c (size before relaxing)
 .rodata.str1.1
                0x03fbd5ee      0x54c common/libcommon.a(cmd_fat.o)
                                0x55b (size before relaxing)
 .rodata.str1.1
                0x03fbdb3a      0x745 common/libcommon.a(cmd_flash.o)
                                0x75d (size before relaxing)
 .rodata.str1.1
                0x03fbe27f      0x433 common/libcommon.a(cmd_i2c.o)
                                0x468 (size before relaxing)
 .rodata.str1.1
                0x03fbe6b2      0x474 common/libcommon.a(cmd_ide.o)
                                0x503 (size before relaxing)
 .rodata.str1.1
                0x03fbeb26       0xba common/libcommon.a(cmd_itest.o)
                                 0xca (size before relaxing)
 .rodata.str1.1
                0x03fbebe0      0x2dc common/libcommon.a(cmd_load.o)
                                0x2f2 (size before relaxing)
 .rodata.str1.1
                0x03fbeebc      0x64f common/libcommon.a(cmd_mem.o)
                                0x6a3 (size before relaxing)
 .rodata.str1.1
                0x03fbf50b      0x785 common/libcommon.a(cmd_mii.o)
                                0x7a6 (size before relaxing)
 .rodata.str1.1
                0x03fbfc90       0x6b common/libcommon.a(cmd_misc.o)
                                 0x76 (size before relaxing)
 .rodata.str1.1
                0x03fbfcfb      0x328 common/libcommon.a(cmd_mmc.o)
                                0x33a (size before relaxing)
 .rodata.str1.1
                0x03fc0023       0x38 common/libcommon.a(cmd_dma.o)
                                 0xa0 (size before relaxing)
 .rodata.str1.1
                0x03fc005b     0x143c common/libcommon.a(cmd_nand.o)
                               0x154c (size before relaxing)
 .rodata.str1.1
                0x03fc1497      0x20f common/libcommon.a(cmd_net.o)
                                0x282 (size before relaxing)
 .rodata.str1.1
                0x03fc16a6      0x2cd common/libcommon.a(cmd_nvedit.o)
                                0x350 (size before relaxing)
 .rodata.str1.1
                0x03fc1973      0x742 common/libcommon.a(cmd_usb.o)
                                0x936 (size before relaxing)
 .rodata.str1.1
                0x03fc20b5      0x2ef common/libcommon.a(command.o)
                                0x341 (size before relaxing)
 .rodata.str1.1
                0x03fc23a4       0x70 common/libcommon.a(console.o)
                                 0x74 (size before relaxing)
 .rodata.str1.1
                0x03fc2414       0x2f common/libcommon.a(devices.o)
                                 0x43 (size before relaxing)
 .rodata.str1.1
                0x03fc2443       0x33 common/libcommon.a(env_common.o)
                                 0x37 (size before relaxing)
 .rodata.str1.1
                0x03fc2476       0x7f common/libcommon.a(env_flash.o)
                                 0x85 (size before relaxing)
 .rodata.str1.1
                0x03fc24f5       0xf3 common/libcommon.a(wmt_cmd_display.o)
                                0x13c (size before relaxing)
 .rodata.str1.1
                0x03fc25e8       0x4a common/libcommon.a(minivgui.o)
 .rodata.str1.1
                0x03fc2632      0x172 common/libcommon.a(uboot-vpp.o)
                                0x1c1 (size before relaxing)
 .rodata.str1.1
                0x03fc27a4       0xb7 common/libcommon.a(cmd_mbit.o)
                                0x110 (size before relaxing)
 .rodata.str1.1
                0x03fc285b      0x299 common/libcommon.a(cmd_textout.o)
                                0x2aa (size before relaxing)
 .rodata.str1.1
                0x03fc2af4      0x28e common/libcommon.a(env_parse.o)
                                0x2b2 (size before relaxing)
 .rodata.str1.1
                0x03fc2d82       0xf7 common/libcommon.a(flash.o)
                                0x10c (size before relaxing)
 .rodata.str1.1
                0x03fc2e79      0x14b common/libcommon.a(hush.o)
                                0x1ae (size before relaxing)
 .rodata.str1.1
                0x03fc2fc4      0x174 common/libcommon.a(miiphyutil.o)
                                0x176 (size before relaxing)
 .rodata.str1.1
                0x03fc3138      0x173 common/libcommon.a(usb.o)
 .rodata.str1.1
                0x03fc32ab      0x1cc common/libcommon.a(usb_storage.o)
                                0x1de (size before relaxing)
 .rodata.str1.1
                0x03fc3477       0x1b common/libcommon.a(pwm.o)
 .rodata.str1.1
                0x03fc3492       0x32 common/libcommon.a(wmt-ost.o)
 .rodata.str1.1
                0x03fc34c4      0x2cd common/libcommon.a(govrh.o)
 .rodata.str1.1
                0x03fc3791       0x37 common/libcommon.a(lcd.o)
 .rodata.str1.1
                0x03fc37c8       0xa7 common/libcommon.a(lvds.o)
 .rodata.str1.1
                0x03fc386f      0x2ec common/libcommon.a(vpp.o)
                                0x31f (size before relaxing)
 .rodata.str1.1
                0x03fc3b5b      0x2f1 common/libcommon.a(vout-wmt.o)
                                0x335 (size before relaxing)
 .rodata.str1.1
                0x03fc3e4c       0x34 common/libcommon.a(lcd-oem.o)
 .rodata.str1.1
                0x03fc3e80       0x23 common/libcommon.a(lcd-AUO-A080SN01.o)
 .rodata.str1.1
                0x03fc3ea3       0x12 common/libcommon.a(lcd-INNOLUX-AT070TN83.o)
 .rodata.str1.1
                0x03fc3eb5       0x48 common/libcommon.a(lcd-CHILIN-LW700at9003.o)
 .rodata.str1.1
                0x03fc3efd       0x3b common/libcommon.a(lcd-EKING-EK08009-70135.o)
 .rodata.str1.1
                0x03fc3f38       0x47 common/libcommon.a(lcd-HANNSTAR-HSD101PFW2.o)
 .rodata.str1.1
                0x03fc3f7f       0x2e common/libcommon.a(vt1632.o)
                                 0x35 (size before relaxing)
 .rodata.str1.1
                0x03fc3fad       0xc1 common/libcommon.a(sil902x.o)
                                 0xc8 (size before relaxing)
 .rodata.str1.1
                0x03fc406e       0x1c common/libcommon.a(vpp-osif.o)
 .rodata.str1.1
                0x03fc408a       0x7f common/libcommon.a(vout.o)
 .rodata.str1.1
                0x03fc4109       0x2a common/libcommon.a(sw_i2c.o)
 .rodata.str1.1
                0x03fc4133      0x110 common/libcommon.a(parse-edid.o)
                                0x112 (size before relaxing)
 .rodata.str1.1
                0x03fc4243       0x18 lib_generic/libgeneric.a(display_options.o)
 .rodata.str1.1
                0x03fc425b       0x51 lib_generic/libgeneric.a(vsprintf.o)
 .rodata.str1.1
                0x03fc42ac      0x1f3 lib_generic/libgeneric.a(zlib.o)
                                0x1f4 (size before relaxing)
 .rodata.str1.1
                0x03fc449f       0x9c board/wmt/libwmt.a(flash.o)
                                 0x9e (size before relaxing)
 .rodata.str1.1
                0x03fc453b      0x273 board/wmt/libwmt.a(spi_flash.o)
                                0x294 (size before relaxing)
 .rodata.str1.1
                0x03fc47ae      0x29b board/wmt/libwmt.a(nor_flash_8bit.o)
                                0x325 (size before relaxing)
 .rodata.str1.1
                0x03fc4a49      0x102 board/wmt/libwmt.a(nor_flash_16bit.o)
                                0x3ce (size before relaxing)
 .rodata.str1.1
                0x03fc4b4b      0x1c9 board/wmt/libwmt.a(wmt_clk.o)
 .rodata.str1.1
                0x03fc4d14      0x11a board/wmt/libwmt.a(ehci-hcd.o)
 .rodata.str1.1
                0x03fc4e2e      0x32a board/wmt/libwmt.a(usb_uhci.o)
                                0x32c (size before relaxing)
 .rodata.str1.1
                0x03fc5158       0xdb cpu/arm920t/wmt/libwmt.a(gmacif.o)
                                 0xdd (size before relaxing)
 .rodata.str1.1
                0x03fc5233      0x11a cpu/arm920t/wmt/libwmt.a(dma.o)
 .rodata.str1.1
                0x03fc534d      0x157 cpu/arm920t/wmt/libwmt.a(mmc.o)
 .rodata.str1.1
                0x03fc54a4       0x4c cpu/arm920t/wmt/libwmt.a(pcinet.o)
 .rodata.str1.1
                0x03fc54f0        0xc cpu/arm920t/wmt/libwmt.a(galloct.o)
 .rodata.str1.1
                0x03fc54fc        0xd cpu/arm920t/wmt/libwmt.a(gmac.o)
 .rodata.str1.1
                0x03fc5509       0x63 cpu/arm920t/wmt/libwmt.a(gadapter.o)
 .rodata.str1.1
                0x00000000       0x63 cpu/arm920t/wmt/libwmt.a(tconvert.o)
                                  0x5 (size before relaxing)
 .rodata.str1.1
                0x03fc556c      0x10b lib_arm/libarm.a(armlinux.o)
                                0x17a (size before relaxing)
 .rodata.str1.1
                0x03fc5677      0x1bd fs/fat/libfat.a(fat.o)
                                0x1c3 (size before relaxing)
 .rodata.str1.1
                0x03fc5834      0x152 disk/libdisk.a(part.o)
                                0x17a (size before relaxing)
 .rodata.str1.1
                0x03fc5986       0xea disk/libdisk.a(part_dos.o)
                                 0xf6 (size before relaxing)
                0x03fc5a70                . = ALIGN (0x4)

.data           0x03fc5a70     0x2b18
 *(.data)
 .data          0x03fc5a70        0x0 cpu/arm920t/start.o
 .data          0x03fc5a70        0x0 board/wmt/libwmt.a(lowlevel_init.o)
 .data          0x03fc5a70        0x0 cpu/arm920t/libarm920t.a(interrupts.o)
 .data          0x03fc5a70        0x0 cpu/arm920t/wmt/libwmt.a(interrupts.o)
 .data          0x03fc5a70       0x2c lib_arm/libarm.a(board.o)
                0x03fc5a70                init_sequence
 .data          0x03fc5a9c        0xa net/libnet.a(net.o)
                0x03fc5a9c                NetOurVLAN
                0x03fc5a9e                NetBcastAddr
                0x03fc5aa4                NetOurNativeVLAN
 .data          0x03fc5aa6        0x0 net/libnet.a(tftp.o)
 .data          0x03fc5aa6        0x0 net/libnet.a(bootp.o)
 .data          0x03fc5aa6        0x0 net/libnet.a(rarp.o)
 .data          0x03fc5aa6        0x0 net/libnet.a(eth.o)
 *fill*         0x03fc5aa6        0x2 00
 .data          0x03fc5aa8        0x4 net/libnet.a(nfs.o)
 .data          0x03fc5aac        0xd common/libcommon.a(main.o)
 .data          0x03fc5ab9        0x0 common/libcommon.a(cmd_autoscript.o)
 .data          0x03fc5ab9        0x0 common/libcommon.a(cmd_bdinfo.o)
 .data          0x03fc5ab9        0x0 common/libcommon.a(cmd_boot.o)
 *fill*         0x03fc5ab9        0x3 00
 .data          0x03fc5abc        0x4 common/libcommon.a(cmd_bootm.o)
                0x03fc5abc                load_addr
 .data          0x03fc5ac0        0x0 common/libcommon.a(cmd_console.o)
 .data          0x03fc5ac0        0x0 common/libcommon.a(cmd_fat.o)
 .data          0x03fc5ac0        0x0 common/libcommon.a(cmd_flash.o)
 .data          0x03fc5ac0        0x4 common/libcommon.a(cmd_i2c.o)
 .data          0x03fc5ac4        0x4 common/libcommon.a(cmd_ide.o)
 .data          0x03fc5ac8       0x68 common/libcommon.a(cmd_itest.o)
                0x03fc5ac8                op_table
 .data          0x03fc5b30        0x4 common/libcommon.a(cmd_load.o)
 .data          0x03fc5b34        0x4 common/libcommon.a(cmd_mem.o)
                0x03fc5b34                dp_last_length
 .data          0x03fc5b38      0x2e8 common/libcommon.a(cmd_mii.o)
                0x03fc5b38                reg_0_5_desc_tbl
                0x03fc5b68                desc_and_len_tbl
                0x03fc5b98                reg_0_desc_tbl
                0x03fc5c10                reg_1_desc_tbl
                0x03fc5cd0                reg_2_desc_tbl
                0x03fc5cdc                reg_3_desc_tbl
                0x03fc5d00                reg_4_desc_tbl
                0x03fc5d90                reg_5_desc_tbl
 .data          0x03fc5e20        0x0 common/libcommon.a(cmd_misc.o)
 .data          0x03fc5e20        0x0 common/libcommon.a(cmd_mmc.o)
 .data          0x03fc5e20        0x4 common/libcommon.a(cmd_dma.o)
                0x03fc5e20                pDma_Reg
 .data          0x03fc5e24      0x72c common/libcommon.a(cmd_nand.o)
 .data          0x03fc6550        0x0 common/libcommon.a(cmd_net.o)
 .data          0x03fc6550        0x0 common/libcommon.a(cmd_nvedit.o)
 .data          0x03fc6550        0x4 common/libcommon.a(cmd_usb.o)
 .data          0x03fc6554        0x0 common/libcommon.a(command.o)
 .data          0x03fc6554        0x0 common/libcommon.a(console.o)
 .data          0x03fc6554        0xc common/libcommon.a(devices.o)
                0x03fc6554                stdio_names
 .data          0x03fc6560      0x414 common/libcommon.a(dlmalloc.o)
 .data          0x03fc6974      0x138 common/libcommon.a(env_common.o)
                0x03fc6974                default_environment
                0x03fc6aa8                env_get_char
 .data          0x03fc6aac       0x18 common/libcommon.a(env_flash.o)
                0x03fc6abc                env_ptr
                0x03fc6ac0                env_name_spec
 .data          0x03fc6ac4        0x0 common/libcommon.a(exports.o)
 .data          0x03fc6ac4        0x0 common/libcommon.a(wmt_cmd_display.o)
 .data          0x03fc6ac4        0x0 common/libcommon.a(minivgui.o)
 .data          0x03fc6ac4       0xc0 common/libcommon.a(uboot-vpp.o)
                0x03fc6ac4                vfb_var
                0x03fc6b64                video_str
 .data          0x03fc6b84        0x0 common/libcommon.a(cmd_mbit.o)
 .data          0x03fc6b84        0x8 common/libcommon.a(cmd_textout.o)
                0x03fc6b84                text_x
                0x03fc6b88                text_y
 .data          0x03fc6b8c        0x0 common/libcommon.a(env_parse.o)
 .data          0x03fc6b8c        0x0 common/libcommon.a(flash.o)
 .data          0x03fc6b8c       0x84 common/libcommon.a(hush.o)
 .data          0x03fc6c10        0x0 common/libcommon.a(lists.o)
 .data          0x03fc6c10        0x0 common/libcommon.a(miiphyutil.o)
 .data          0x03fc6c10        0x0 common/libcommon.a(s_record.o)
 .data          0x03fc6c10        0x0 common/libcommon.a(usb.o)
 .data          0x03fc6c10       0x24 common/libcommon.a(usb_storage.o)
                0x03fc6c10                us_direction
                0x03fc6c30                CBWTag
 .data          0x03fc6c34        0x0 common/libcommon.a(pwm.o)
 .data          0x03fc6c34        0x0 common/libcommon.a(wmt-ost.o)
 .data          0x03fc6c34        0x0 common/libcommon.a(govrh.o)
 .data          0x03fc6c34       0x30 common/libcommon.a(lcd.o)
                0x03fc6c34                lcd_vout_dev_ops
                0x03fc6c60                lcd_panel_on
 .data          0x03fc6c64        0x0 common/libcommon.a(lvds.o)
 .data          0x03fc6c64       0xa0 common/libcommon.a(vpp.o)
                0x03fc6c64                vpp_colfmt_str
                0x03fc6c98                vpp_vout_str
                0x03fc6cbc                vpp_vo_boot_arg
                0x03fc6cd4                vpp_vo_boot_arg2
                0x03fc6cec                vpp_vpath_str
 .data          0x03fc6d04        0x0 common/libcommon.a(hdmi.o)
 .data          0x03fc6d04      0xed8 common/libcommon.a(vout-wmt.o)
                0x03fc6d04                vo_boot_parm
                0x03fc6f34                vo_swi2c_dvi
                0x03fc6f3c                vo_swi2c_vga
                0x03fc6f44                vo_lcd_parm
                0x03fc7174                vo_parm_table
                0x03fc7198                vo_vga_parm
                0x03fc73c8                vo_hdmi_parm
                0x03fc75f8                vout_priority
                0x03fc7604                vo_gpio_scl
                0x03fc7620                vo_gpio_sda
                0x03fc763c                vo_i2c0_scl
                0x03fc7658                vo_i2c0_sda
                0x03fc7674                vo_vga_ops
                0x03fc76a0                vo_dvi_ops
                0x03fc76cc                vo_dvi_parm
                0x03fc78fc                vo_dvo2hdmi_ops
                0x03fc7928                vo_dvo2hdmi_parm
                0x03fc7b58                vo_lcd_ops
                0x03fc7b84                vo_boot_ops
                0x03fc7bb0                vo_hdmi_ops
 .data          0x03fc7bdc       0x40 common/libcommon.a(lcd-oem.o)
                0x03fc7bdc                lcd_oem_parm
 .data          0x03fc7c1c       0x40 common/libcommon.a(lcd-AUO-A080SN01.o)
                0x03fc7c1c                lcd_a080sn01_parm
 .data          0x03fc7c5c       0x40 common/libcommon.a(lcd-INNOLUX-AT070TN83.o)
                0x03fc7c5c                lcd_at070tn83_parm
 .data          0x03fc7c9c       0x40 common/libcommon.a(lcd-CHILIN-LW700at9003.o)
                0x03fc7c9c                lcd_lw700at9003_parm
 .data          0x03fc7cdc       0x40 common/libcommon.a(lcd-EKING-EK08009-70135.o)
                0x03fc7cdc                lcd_ek08009_parm
 .data          0x03fc7d1c       0x40 common/libcommon.a(lcd-HANNSTAR-HSD101PFW2.o)
                0x03fc7d1c                lcd_HSD101PFW2_parm
 .data          0x03fc7d5c       0x2c common/libcommon.a(vt1632.o)
                0x03fc7d5c                vt1632_vout_dev_ops
 .data          0x03fc7d88       0x3c common/libcommon.a(sil902x.o)
                0x03fc7d88                sil902x_audio_freq
                0x03fc7d8c                sil902x_audio_fmt
                0x03fc7d90                sil902x_audio_channel
                0x03fc7d94                sil902x_hdmi_edid
                0x03fc7d98                sil902x_vout_dev_ops
 .data          0x03fc7dc4        0x0 common/libcommon.a(vpp-osif.o)
 .data          0x03fc7dc4        0x0 common/libcommon.a(vout.o)
 .data          0x03fc7dc4        0x0 common/libcommon.a(sw_i2c.o)
 .data          0x03fc7dc4       0xcc common/libcommon.a(parse-edid.o)
                0x03fc7dc4                edid_establish_timing
 .data          0x03fc7e90        0x0 lib_generic/libgeneric.a(crc32.o)
 .data          0x03fc7e90      0x100 lib_generic/libgeneric.a(ctype.o)
                0x03fc7e90                _ctype
 .data          0x03fc7f90        0x0 lib_generic/libgeneric.a(display_options.o)
 .data          0x03fc7f90        0x0 lib_generic/libgeneric.a(string.o)
 .data          0x03fc7f90        0x0 lib_generic/libgeneric.a(vsprintf.o)
 .data          0x03fc7f90      0x210 lib_generic/libgeneric.a(zlib.o)
                0x03fc817c                zlib_version
                0x03fc8180                z_errmsg
 .data          0x03fc81a0        0x0 board/wmt/libwmt.a(wmt.o)
 .data          0x03fc81a0        0x3 board/wmt/libwmt.a(flash.o)
                0x03fc81a0                flash_type
                0x03fc81a1                nor_flash_bit
                0x03fc81a2                nand_flash_bit
 .data          0x03fc81a3        0x0 board/wmt/libwmt.a(main.o)
 *fill*         0x03fc81a3        0x1 00
 .data          0x03fc81a4      0x108 board/wmt/libwmt.a(spi_flash.o)
                0x03fc81a4                sf_ids
 .data          0x03fc82ac        0x0 board/wmt/libwmt.a(nand_flash.o)
 .data          0x03fc82ac        0x0 board/wmt/libwmt.a(nor_flash_8bit.o)
 .data          0x03fc82ac        0x0 board/wmt/libwmt.a(nor_flash_16bit.o)
 .data          0x03fc82ac        0x0 board/wmt/libwmt.a(wmt_clk.o)
 .data          0x03fc82ac       0x3a board/wmt/libwmt.a(ehci-hcd.o)
                0x03fc82e4                usb_sel
                0x03fc82e5                ConnectPort
 *fill*         0x03fc82e6        0x2 00
 .data          0x03fc82e8       0x58 board/wmt/libwmt.a(usb_uhci.o)
                0x03fc82e8                usb_base_addr
 .data          0x03fc8340        0x0 board/wmt/libwmt.a(wmt_i2c.o)
 .data          0x03fc8340        0x0 board/wmt/libwmt.a(wmt_i2c_1.o)
 .data          0x03fc8340        0x0 cpu/arm920t/libarm920t.a(cpu.o)
 .data          0x03fc8340        0x8 cpu/arm920t/wmt/libwmt.a(serial.o)
                0x03fc8340                pUart_Reg
                0x03fc8344                pGpioReg
 .data          0x03fc8348        0x0 cpu/arm920t/wmt/libwmt.a(ether.o)
 .data          0x03fc8348        0x8 cpu/arm920t/wmt/libwmt.a(gmacif.o)
                0x03fc834c                g_pvGBufferIndex
 .data          0x03fc8350      0x220 cpu/arm920t/wmt/libwmt.a(dma.o)
                0x03fc8350                dma_device_cfg_table
 .data          0x03fc8570        0xc cpu/arm920t/wmt/libwmt.a(mmc.o)
                0x03fc8570                pSd_Reg
                0x03fc8574                pSd_PDma_Reg
                0x03fc8578                GpioReg
 .data          0x03fc857c        0x8 cpu/arm920t/wmt/libwmt.a(pcinet.o)
                0x03fc857c                g_IO_point
                0x03fc8580                g_Mem_point
 .data          0x03fc8584        0x0 cpu/arm920t/wmt/libwmt.a(gmii.o)
 .data          0x03fc8584        0x0 cpu/arm920t/wmt/libwmt.a(gmib.o)
 .data          0x03fc8584        0x0 cpu/arm920t/wmt/libwmt.a(galloct.o)
 .data          0x03fc8584        0x0 cpu/arm920t/wmt/libwmt.a(gmac.o)
 .data          0x03fc8584        0x0 cpu/arm920t/wmt/libwmt.a(gadapter.o)
 .data          0x03fc8584        0x0 cpu/arm920t/wmt/libwmt.a(mem.o)
 .data          0x03fc8584        0x0 cpu/arm920t/wmt/libwmt.a(vpci.o)
 .data          0x03fc8584        0x0 cpu/arm920t/wmt/libwmt.a(upcix.o)
 .data          0x03fc8584        0x0 cpu/arm920t/wmt/libwmt.a(gcard.o)
 .data          0x03fc8584        0x0 cpu/arm920t/wmt/libwmt.a(gisr.o)
 .data          0x03fc8584        0x0 cpu/arm920t/wmt/libwmt.a(tconvert.o)
 .data          0x03fc8584        0x0 cpu/arm920t/wmt/libwmt.a(tcrc.o)
 .data          0x03fc8584        0x0 lib_arm/libarm.a(armlinux.o)
 .data          0x03fc8584        0x0 lib_arm/libarm.a(cache.o)
 .data          0x03fc8584        0x4 fs/fat/libfat.a(fat.o)
 .data          0x03fc8588        0x0 disk/libdisk.a(part.o)
 .data          0x03fc8588        0x0 disk/libdisk.a(part_dos.o)
 .data          0x03fc8588        0x0 cpu/arm920t/wmt/libwmt.a(zde.o)
 .data          0x03fc8588        0x0 /root/Project/sdc1/AndroidPC_2.0/tools/arm-toolchain/bin/../lib/gcc/arm-none-eabi/4.5.2/libgcc.a(_udivsi3.o)
 .data          0x03fc8588        0x0 /root/Project/sdc1/AndroidPC_2.0/tools/arm-toolchain/bin/../lib/gcc/arm-none-eabi/4.5.2/libgcc.a(_divsi3.o)
 .data          0x03fc8588        0x0 /root/Project/sdc1/AndroidPC_2.0/tools/arm-toolchain/bin/../lib/gcc/arm-none-eabi/4.5.2/libgcc.a(_dvmd_tls.o)
 .data          0x03fc8588        0x0 /root/Project/sdc1/AndroidPC_2.0/tools/arm-toolchain/bin/../lib/gcc/arm-none-eabi/4.5.2/libgcc.a(_ashldi3.o)
                0x03fc8588                . = ALIGN (0x4)

.got
 *(.got)
                0x03fc8588                __u_boot_cmd_start = .

.u_boot_cmd     0x03fc8588      0x7a8
 *(.u_boot_cmd)
 .u_boot_cmd    0x03fc8588       0x1c common/libcommon.a(cmd_autoscript.o)
                0x03fc8588                __u_boot_cmd_autoscr
 .u_boot_cmd    0x03fc85a4       0x1c common/libcommon.a(cmd_bdinfo.o)
                0x03fc85a4                __u_boot_cmd_bdinfo
 .u_boot_cmd    0x03fc85c0       0x38 common/libcommon.a(cmd_boot.o)
                0x03fc85c0                __u_boot_cmd_go
                0x03fc85dc                __u_boot_cmd_reset
 .u_boot_cmd    0x03fc85f8       0x8c common/libcommon.a(cmd_bootm.o)
                0x03fc85f8                __u_boot_cmd_bootm
                0x03fc8614                __u_boot_cmd_boot
                0x03fc8630                __u_boot_cmd_bootd
                0x03fc864c                __u_boot_cmd_iminfo
                0x03fc8668                __u_boot_cmd_imls
 .u_boot_cmd    0x03fc8684       0x1c common/libcommon.a(cmd_console.o)
                0x03fc8684                __u_boot_cmd_coninfo
 .u_boot_cmd    0x03fc86a0       0x70 common/libcommon.a(cmd_fat.o)
                0x03fc86a0                __u_boot_cmd_fatload
                0x03fc86bc                __u_boot_cmd_fatstore
                0x03fc86d8                __u_boot_cmd_fatls
                0x03fc86f4                __u_boot_cmd_fatinfo
 .u_boot_cmd    0x03fc8710       0x54 common/libcommon.a(cmd_flash.o)
                0x03fc8710                __u_boot_cmd_flinfo
                0x03fc872c                __u_boot_cmd_erase
                0x03fc8748                __u_boot_cmd_protect
 .u_boot_cmd    0x03fc8764       0xe0 common/libcommon.a(cmd_i2c.o)
                0x03fc8764                __u_boot_cmd_imd
                0x03fc8780                __u_boot_cmd_imm
                0x03fc879c                __u_boot_cmd_inm
                0x03fc87b8                __u_boot_cmd_imw
                0x03fc87d4                __u_boot_cmd_icrc32
                0x03fc87f0                __u_boot_cmd_iprobe
                0x03fc880c                __u_boot_cmd_iloop
                0x03fc8828                __u_boot_cmd_ims
 .u_boot_cmd    0x03fc8844       0x38 common/libcommon.a(cmd_ide.o)
                0x03fc8844                __u_boot_cmd_ide
                0x03fc8860                __u_boot_cmd_diskboot
 .u_boot_cmd    0x03fc887c       0x1c common/libcommon.a(cmd_itest.o)
                0x03fc887c                __u_boot_cmd_itest
 .u_boot_cmd    0x03fc8898       0x38 common/libcommon.a(cmd_load.o)
                0x03fc8898                __u_boot_cmd_loads
                0x03fc88b4                __u_boot_cmd_loadb
 .u_boot_cmd    0x03fc88d0      0x118 common/libcommon.a(cmd_mem.o)
                0x03fc88d0                __u_boot_cmd_md
                0x03fc88ec                __u_boot_cmd_mm
                0x03fc8908                __u_boot_cmd_nm
                0x03fc8924                __u_boot_cmd_mw
                0x03fc8940                __u_boot_cmd_cp
                0x03fc895c                __u_boot_cmd_cmp
                0x03fc8978                __u_boot_cmd_crc32
                0x03fc8994                __u_boot_cmd_base
                0x03fc89b0                __u_boot_cmd_loop
                0x03fc89cc                __u_boot_cmd_mtest
 .u_boot_cmd    0x03fc89e8       0x1c common/libcommon.a(cmd_mii.o)
                0x03fc89e8                __u_boot_cmd_mii
 .u_boot_cmd    0x03fc8a04       0x1c common/libcommon.a(cmd_misc.o)
                0x03fc8a04                __u_boot_cmd_sleep
 .u_boot_cmd    0x03fc8a20       0x70 common/libcommon.a(cmd_mmc.o)
                0x03fc8a20                __u_boot_cmd_mmcinit
                0x03fc8a3c                __u_boot_cmd_mmcread
                0x03fc8a58                __u_boot_cmd_mmcwrite
                0x03fc8a74                __u_boot_cmd_sdwaitins
 .u_boot_cmd    0x03fc8a90       0x1c common/libcommon.a(cmd_dma.o)
                0x03fc8a90                __u_boot_cmd_dmacp
 .u_boot_cmd    0x03fc8aac       0x38 common/libcommon.a(cmd_nand.o)
                0x03fc8aac                __u_boot_cmd_nandrw
                0x03fc8ac8                __u_boot_cmd_nboot
 .u_boot_cmd    0x03fc8ae4       0xa8 common/libcommon.a(cmd_net.o)
                0x03fc8ae4                __u_boot_cmd_bootp
                0x03fc8b00                __u_boot_cmd_tftpboot
                0x03fc8b1c                __u_boot_cmd_rarpboot
                0x03fc8b38                __u_boot_cmd_dhcp
                0x03fc8b54                __u_boot_cmd_nfs
                0x03fc8b70                __u_boot_cmd_ping
 .u_boot_cmd    0x03fc8b8c       0x70 common/libcommon.a(cmd_nvedit.o)
                0x03fc8b8c                __u_boot_cmd_printenv
                0x03fc8ba8                __u_boot_cmd_setenv
                0x03fc8bc4                __u_boot_cmd_saveenv
                0x03fc8be0                __u_boot_cmd_run
 .u_boot_cmd    0x03fc8bfc       0x38 common/libcommon.a(cmd_usb.o)
                0x03fc8bfc                __u_boot_cmd_usb
                0x03fc8c18                __u_boot_cmd_usbboot
 .u_boot_cmd    0x03fc8c34       0xa8 common/libcommon.a(command.o)
                0x03fc8c34                __u_boot_cmd_version
                0x03fc8c50                __u_boot_cmd_echo
                0x03fc8c6c                __u_boot_cmd_test
                0x03fc8c88                __u_boot_cmd_exit
                0x03fc8ca4                __u_boot_cmd_help
                0x03fc8cc0                __u_boot_cmd_question_mark
 .u_boot_cmd    0x03fc8cdc       0x1c common/libcommon.a(wmt_cmd_display.o)
                0x03fc8cdc                __u_boot_cmd_display
 .u_boot_cmd    0x03fc8cf8       0x1c common/libcommon.a(cmd_mbit.o)
                0x03fc8cf8                __u_boot_cmd_mbit
 .u_boot_cmd    0x03fc8d14       0x1c common/libcommon.a(cmd_textout.o)
                0x03fc8d14                __u_boot_cmd_textout
                0x03fc8d30                __u_boot_cmd_end = .
                0x03fc8d30                . = ALIGN (0x4)
                0x03fc8d30                __bss_start = .

.bss            0x03fc9000    0x23a88
 *(.bss)
 .bss           0x03fc9000        0x0 cpu/arm920t/start.o
 .bss           0x03fc9000        0x0 board/wmt/libwmt.a(lowlevel_init.o)
 .bss           0x03fc9000        0x0 cpu/arm920t/libarm920t.a(interrupts.o)
 .bss           0x03fc9000        0x8 cpu/arm920t/wmt/libwmt.a(interrupts.o)
 .bss           0x03fc9008       0x10 lib_arm/libarm.a(board.o)
                0x03fc9014                monitor_flash_len
 .bss           0x03fc9018     0x25d0 net/libnet.a(net.o)
                0x03fc9018                NetState
                0x03fc901c                NetPingIP
                0x03fc9030                NetOurEther
                0x03fc9038                NetTxPacket
                0x03fc903c                NetOurIP
                0x03fc9040                NetArpWaitPacketIP
                0x03fc9044                NetOurSubnetMask
                0x03fc9048                NetOurGatewayIP
                0x03fc904c                NetArpWaitReplyIP
                0x03fc9050                NetArpWaitTimerStart
                0x03fc9054                NetArpWaitTry
                0x03fc905e                NetEtherNullAddr
                0x03fc9064                NetArpWaitPacketMAC
                0x03fc9068                NetArpWaitTxPacket
                0x03fc906c                NetIPID
                0x03fc9074                NetArpWaitTxPacketSize
                0x03fc9078                NetRxPkt
                0x03fc907c                NetRxPktLen
                0x03fc9080                NetServerIP
                0x03fc9084                NetServerEther
                0x03fc908a                PktBuf
                0x03fcaeac                NetRxPackets
                0x03fcaebc                NetArpWaitPacketBuf
                0x03fcb4dc                NetBootFileXferSize
                0x03fcb4e0                NetOurDNSIP
                0x03fcb4e4                NetOurNISDomain
                0x03fcb504                NetOurHostName
                0x03fcb524                NetOurRootPath
                0x03fcb564                NetBootFileSize
                0x03fcb566                BootFile
 .bss           0x03fcb5e8       0x34 net/libnet.a(tftp.o)
 .bss           0x03fcb61c       0x14 net/libnet.a(bootp.o)
                0x03fcb61c                dhcp_leasetime
                0x03fcb620                NetDHCPServerIP
                0x03fcb624                BootpID
                0x03fcb628                dhcp_state
                0x03fcb62c                BootpTry
 .bss           0x03fcb630        0x4 net/libnet.a(rarp.o)
                0x03fcb630                RarpTry
 .bss           0x03fcb634        0x0 net/libnet.a(eth.o)
 .bss           0x03fcb634      0x8b0 net/libnet.a(nfs.o)
 .bss           0x03fcbee4      0x400 common/libcommon.a(main.o)
                0x03fcbee4                console_buffer
 .bss           0x03fcc2e4        0x0 common/libcommon.a(cmd_autoscript.o)
 .bss           0x03fcc2e4        0x0 common/libcommon.a(cmd_bdinfo.o)
 .bss           0x03fcc2e4        0x0 common/libcommon.a(cmd_boot.o)
 .bss           0x03fcc2e4       0x40 common/libcommon.a(cmd_bootm.o)
                0x03fcc2e4                header
 .bss           0x03fcc324        0x0 common/libcommon.a(cmd_console.o)
 .bss           0x03fcc324        0x0 common/libcommon.a(cmd_fat.o)
 .bss           0x03fcc324        0x0 common/libcommon.a(cmd_flash.o)
 .bss           0x03fcc324        0xc common/libcommon.a(cmd_i2c.o)
 .bss           0x03fcc330       0x70 common/libcommon.a(cmd_ide.o)
                0x03fcc330                ide_bus_offset
                0x03fcc334                ide_dev_desc
 .bss           0x03fcc3a0        0x0 common/libcommon.a(cmd_itest.o)
 .bss           0x03fcc3a0       0x88 common/libcommon.a(cmd_load.o)
                0x03fcc3a4                os_data_count
                0x03fcc3b0                his_pad_count
                0x03fcc3b4                his_pad_char
                0x03fcc3cd                his_eol
                0x03fcc3d4                os_data_init
                0x03fcc3e8                os_data_char
                0x03fcc3ec                his_quote
                0x03fcc3f0                send_ptr
                0x03fcc3f4                send_parms
                0x03fcc408                os_data_header
 .bss           0x03fcc428       0x14 common/libcommon.a(cmd_mem.o)
                0x03fcc42c                mm_last_addr
                0x03fcc430                mm_last_size
                0x03fcc434                dp_last_addr
                0x03fcc438                dp_last_size
 .bss           0x03fcc43c       0x18 common/libcommon.a(cmd_mii.o)
                0x03fcc43c                last_op
                0x03fcc440                last_addr_lo
                0x03fcc444                last_addr_hi
                0x03fcc448                last_reg_lo
                0x03fcc44c                last_reg_hi
                0x03fcc450                last_data
 .bss           0x03fcc454        0x0 common/libcommon.a(cmd_misc.o)
 .bss           0x03fcc454        0x0 common/libcommon.a(cmd_mmc.o)
 .bss           0x03fcc454        0x4 common/libcommon.a(cmd_dma.o)
                0x03fcc454                flag0
 .bss           0x03fcc458      0x1c0 common/libcommon.a(cmd_nand.o)
                0x03fcc45c                pNFCRegs
                0x03fcc460                g_WMTNFCBASE
                0x03fcc464                pNand_PDma_Reg
                0x03fcc468                ReadDesc
                0x03fcc470                bad_block_pos
                0x03fcc498                oob_config
                0x03fcc4b8                nand_dev_desc
                0x03fcc5b8                NAND_PDMA_REG
                0x03fcc5f0                PNAND_PDMA_REG
                0x03fcc5f4                NAND_PDMA_DESC_S
                0x03fcc5fc                PNAND_PDMA_DESC_S
                0x03fcc600                NAND_PDMA_DESC_L
                0x03fcc610                PNAND_PDMA_DESC_L
                0x03fcc614                WriteDesc
 .bss           0x03fcc618        0x0 common/libcommon.a(cmd_net.o)
 .bss           0x03fcc618        0x0 common/libcommon.a(cmd_nvedit.o)
 .bss           0x03fcc618        0x0 common/libcommon.a(cmd_usb.o)
 .bss           0x03fcc618      0x600 common/libcommon.a(command.o)
 .bss           0x03fccc18        0x8 common/libcommon.a(console.o)
 .bss           0x03fccc20       0x10 common/libcommon.a(devices.o)
                0x03fccc20                devlist
                0x03fccc24                stdio_devices
 .bss           0x03fccc30       0x38 common/libcommon.a(dlmalloc.o)
 .bss           0x03fccc68        0x0 common/libcommon.a(env_common.o)
 .bss           0x03fccc68        0x0 common/libcommon.a(env_flash.o)
 .bss           0x03fccc68        0x0 common/libcommon.a(exports.o)
 .bss           0x03fccc68        0x0 common/libcommon.a(wmt_cmd_display.o)
 .bss           0x03fccc68       0x28 common/libcommon.a(minivgui.o)
                0x03fccc88                rgb2color
                0x03fccc8c                putcolor2fb
 .bss           0x03fccc90       0xa0 common/libcommon.a(uboot-vpp.o)
                0x03fccc90                g_fb_phy
                0x03fccc94                g_direct_path
                0x03fccc98                g_img_phy
                0x03fccc9c                g_display_param
                0x03fcccb4                g_display_vaild
                0x03fcccb8                g_pwm_setting
                0x03fccccc                g_display_param2
                0x03fccce4                g_display_tmr
                0x03fccd0c                g_lcd_pw_pin
                0x03fccd24                g_logo_x
                0x03fccd28                g_logo_y
                0x03fccd2c                vpp_dac_sense_enable
 .bss           0x03fccd30        0x0 common/libcommon.a(cmd_mbit.o)
 .bss           0x03fccd30        0x0 common/libcommon.a(cmd_textout.o)
 .bss           0x03fccd30        0x0 common/libcommon.a(env_parse.o)
 .bss           0x03fccd30        0x0 common/libcommon.a(flash.o)
 .bss           0x03fccd30      0x558 common/libcommon.a(hush.o)
                0x03fcd160                last_return_code
                0x03fcd284                nesting_level
 .bss           0x03fcd288        0x0 common/libcommon.a(lists.o)
 .bss           0x03fcd288        0xc common/libcommon.a(miiphyutil.o)
 .bss           0x03fcd294        0x0 common/libcommon.a(s_record.o)
 .bss           0x03fcd294     0xca98 common/libcommon.a(usb.o)
 .bss           0x03fd9d2c      0x5a0 common/libcommon.a(usb_storage.o)
 .bss           0x03fda2cc        0x0 common/libcommon.a(pwm.o)
 .bss           0x03fda2cc        0x4 common/libcommon.a(wmt-ost.o)
 .bss           0x03fda2d0        0x4 common/libcommon.a(govrh.o)
                0x03fda2d0                p_govrh
 .bss           0x03fda2d4       0x30 common/libcommon.a(lcd.o)
                0x03fda2d4                p_lcd
                0x03fda2d8                lcd_blt_id
                0x03fda2dc                lcd_device_array
                0x03fda2f4                lcd_blt_level
                0x03fda2f8                lcd_blt_freq
                0x03fda2fc                lcd_panel_id
                0x03fda300                lcd_pwm_enable
 .bss           0x03fda304        0x0 common/libcommon.a(lvds.o)
 .bss           0x03fda304      0x1e4 common/libcommon.a(vpp.o)
                0x03fda304                g_vpp
                0x03fda4ac                vpp_mod_base_list
                0x03fda4e0                vpp_vout_option
                0x03fda4e4                vpp_govm_path1
 .bss           0x03fda4e8        0x8 common/libcommon.a(hdmi.o)
                0x03fda4e8                hdmi_pixel_clock
                0x03fda4ec                hdmi_cp
 .bss           0x03fda4f0       0x40 common/libcommon.a(vout-wmt.o)
                0x03fda4f0                vo_oem_tmr
                0x03fda518                vo_plug_mode
                0x03fda51c                vo_plug_func
                0x03fda528                hdmi_cur_plugin
                0x03fda52c                vo_poll_mode
 .bss           0x03fda530        0x0 common/libcommon.a(lcd-oem.o)
 .bss           0x03fda530        0x0 common/libcommon.a(lcd-AUO-A080SN01.o)
 .bss           0x03fda530        0x0 common/libcommon.a(lcd-INNOLUX-AT070TN83.o)
 .bss           0x03fda530        0x0 common/libcommon.a(lcd-CHILIN-LW700at9003.o)
 .bss           0x03fda530        0x0 common/libcommon.a(lcd-EKING-EK08009-70135.o)
 .bss           0x03fda530        0x0 common/libcommon.a(lcd-HANNSTAR-HSD101PFW2.o)
 .bss           0x03fda530        0x4 common/libcommon.a(vt1632.o)
 .bss           0x03fda534       0x14 common/libcommon.a(sil902x.o)
                0x03fda534                sil902x_datawidth
                0x03fda538                sil902x_colfmt
                0x03fda53c                sil902x_cp_start
                0x03fda540                sil902x_cp_linkProtectionLevel
                0x03fda544                sil902x_videoMode
 .bss           0x03fda548        0x4 common/libcommon.a(vpp-osif.o)
                0x03fda548                vpp_i2c_lock
 .bss           0x03fda54c       0x2c common/libcommon.a(vout.o)
                0x03fda54c                vout_array
                0x03fda570                vout_dev_list
                0x03fda574                vout_board_info
 .bss           0x03fda578        0x8 common/libcommon.a(sw_i2c.o)
                0x03fda578                swi2c_sda
                0x03fda57c                swi2c_scl
 .bss           0x03fda580      0x100 common/libcommon.a(parse-edid.o)
                0x03fda580                edid_info
 .bss           0x03fda680        0x0 lib_generic/libgeneric.a(crc32.o)
 .bss           0x03fda680        0x0 lib_generic/libgeneric.a(ctype.o)
 .bss           0x03fda680        0x0 lib_generic/libgeneric.a(display_options.o)
 .bss           0x03fda680        0x4 lib_generic/libgeneric.a(string.o)
                0x03fda680                ___strtok
 .bss           0x03fda684        0x0 lib_generic/libgeneric.a(vsprintf.o)
 .bss           0x03fda684     0x10a8 lib_generic/libgeneric.a(zlib.o)
 .bss           0x03fdb72c        0x0 board/wmt/libwmt.a(wmt.o)
 .bss           0x03fdb72c     0x8cac board/wmt/libwmt.a(flash.o)
                0x03fdb72c                flash_info
                0x03fddf60                flash_info_nor
                0x03fe0790                flash_info_nand
                0x03fe2fc0                flash_info_spi
 .bss           0x03fe43d8        0x4 board/wmt/libwmt.a(main.o)
                0x03fe43d8                chip_id
 .bss           0x03fe43dc        0xc board/wmt/libwmt.a(spi_flash.o)
                0x03fe43dc                sfreg
 .bss           0x03fe43e8        0x0 board/wmt/libwmt.a(nand_flash.o)
 .bss           0x03fe43e8        0x0 board/wmt/libwmt.a(nor_flash_8bit.o)
 .bss           0x03fe43e8        0x0 board/wmt/libwmt.a(nor_flash_16bit.o)
 .bss           0x03fe43e8      0x200 board/wmt/libwmt.a(wmt_clk.o)
 *fill*         0x03fe45e8       0x18 00
 .bss           0x03fe4600      0x1e0 board/wmt/libwmt.a(ehci-hcd.o)
                0x03fe4740                hcor
                0x03fe4744                rootdev
                0x03fe474c                hccr
                0x03fe4750                port_connect_status
                0x03fe4754                MaxDevice
                0x03fe4758                length_flag
                0x03fe47c0                pipe_flag
                0x03fe47c4                g_usb_param
                0x03fe47c8                usb_flag
                0x03fe47cc                inquiry_flag
 *fill*         0x03fe47e0      0x820 00
 .bss           0x03fe5000     0x7000 board/wmt/libwmt.a(usb_uhci.o)
                0x03fe5080                tmp_td
                0x03fe9080                qh_cntrl
                0x03fe9100                qh_bulk
                0x03fe9180                tmp_int_td
                0x03fe9580                td_int
                0x03fea000                framelist
                0x03feb000                td_last
                0x03feb080                qh_end
 .bss           0x03fec000       0x1c board/wmt/libwmt.a(wmt_i2c.o)
                0x03fec018                i2c_xfer_mode
 .bss           0x03fec01c       0x18 board/wmt/libwmt.a(wmt_i2c_1.o)
 .bss           0x03fec034        0x0 cpu/arm920t/libarm920t.a(cpu.o)
 .bss           0x03fec034        0x0 cpu/arm920t/wmt/libwmt.a(serial.o)
 .bss           0x03fec034        0x0 cpu/arm920t/wmt/libwmt.a(ether.o)
 .bss           0x03fec034       0x4c cpu/arm920t/wmt/libwmt.a(gmacif.o)
                0x03fec034                sCmdPara
                0x03fec078                g_bInit
                0x03fec07c                sg_i32GError_status
 .bss           0x03fec080      0x168 cpu/arm920t/wmt/libwmt.a(dma.o)
 .bss           0x03fec1e8      0x870 cpu/arm920t/wmt/libwmt.a(mmc.o)
                0x03fec1e8                SDDevInfo
                0x03fec1ec                SD0DevInfo
                0x03fec4ac                SD1DevInfo
                0x03fec760                SD2DevInfo
                0x03feca1c                SD_PDMA_REG
                0x03feca54                PSD_PDMA_REG
 .bss           0x03feca58        0x0 cpu/arm920t/wmt/libwmt.a(pcinet.o)
 .bss           0x03feca58        0x4 cpu/arm920t/wmt/libwmt.a(gmii.o)
 .bss           0x03feca5c        0x0 cpu/arm920t/wmt/libwmt.a(gmib.o)
 .bss           0x03feca5c        0x0 cpu/arm920t/wmt/libwmt.a(galloct.o)
 .bss           0x03feca5c        0x0 cpu/arm920t/wmt/libwmt.a(gmac.o)
 .bss           0x03feca5c       0x20 cpu/arm920t/wmt/libwmt.a(gadapter.o)
                0x03feca5c                sOptions
                0x03feca74                sg_aGAdapter
                0x03feca78                sg_abyRandomTable
 .bss           0x03feca7c        0x0 cpu/arm920t/wmt/libwmt.a(mem.o)
 .bss           0x03feca7c        0x0 cpu/arm920t/wmt/libwmt.a(vpci.o)
 .bss           0x03feca7c        0x0 cpu/arm920t/wmt/libwmt.a(upcix.o)
 .bss           0x03feca7c        0x0 cpu/arm920t/wmt/libwmt.a(gcard.o)
 .bss           0x03feca7c        0x0 cpu/arm920t/wmt/libwmt.a(gisr.o)
 .bss           0x03feca7c        0x0 cpu/arm920t/wmt/libwmt.a(tconvert.o)
 .bss           0x03feca7c        0x0 cpu/arm920t/wmt/libwmt.a(tcrc.o)
 .bss           0x03feca7c        0x4 lib_arm/libarm.a(armlinux.o)
 .bss           0x03feca80        0x0 lib_arm/libarm.a(cache.o)
 .bss           0x03feca80        0x8 fs/fat/libfat.a(fat.o)
 .bss           0x03feca88        0x0 disk/libdisk.a(part.o)
 .bss           0x03feca88        0x0 disk/libdisk.a(part_dos.o)
 .bss           0x03feca88        0x0 cpu/arm920t/wmt/libwmt.a(zde.o)
 .bss           0x03feca88        0x0 /root/Project/sdc1/AndroidPC_2.0/tools/arm-toolchain/bin/../lib/gcc/arm-none-eabi/4.5.2/libgcc.a(_udivsi3.o)
 .bss           0x03feca88        0x0 /root/Project/sdc1/AndroidPC_2.0/tools/arm-toolchain/bin/../lib/gcc/arm-none-eabi/4.5.2/libgcc.a(_divsi3.o)
 .bss           0x03feca88        0x0 /root/Project/sdc1/AndroidPC_2.0/tools/arm-toolchain/bin/../lib/gcc/arm-none-eabi/4.5.2/libgcc.a(_dvmd_tls.o)
 .bss           0x03feca88        0x0 /root/Project/sdc1/AndroidPC_2.0/tools/arm-toolchain/bin/../lib/gcc/arm-none-eabi/4.5.2/libgcc.a(_ashldi3.o)
                0x03feca88                _end = .

.stab
 *(.stab)

.stabstr
 *(.stabstr)

.stab.excl
 *(.stab.excl)

.stab.exclstr
 *(.stab.exclstr)

.stab.index
 *(.stab.index)

.stab.indexstr
 *(.stab.indexstr)

.ARM.attributes
                0x00000000       0x27
 .ARM.attributes
                0x00000000       0x1b cpu/arm920t/start.o
 .ARM.attributes
                0x0000001b       0x1b board/wmt/libwmt.a(lowlevel_init.o)
 .ARM.attributes
                0x00000036       0x2b cpu/arm920t/libarm920t.a(interrupts.o)
 .ARM.attributes
                0x00000061       0x2b cpu/arm920t/wmt/libwmt.a(interrupts.o)
 .ARM.attributes
                0x0000008c       0x2b lib_arm/libarm.a(board.o)
 .ARM.attributes
                0x000000b7       0x2b net/libnet.a(net.o)
 .ARM.attributes
                0x000000e2       0x2b net/libnet.a(tftp.o)
 .ARM.attributes
                0x0000010d       0x2b net/libnet.a(bootp.o)
 .ARM.attributes
                0x00000138       0x2b net/libnet.a(rarp.o)
 .ARM.attributes
                0x00000163       0x2b net/libnet.a(eth.o)
 .ARM.attributes
                0x0000018e       0x2b net/libnet.a(nfs.o)
 .ARM.attributes
                0x000001b9       0x2b common/libcommon.a(main.o)
 .ARM.attributes
                0x000001e4       0x2b common/libcommon.a(cmd_autoscript.o)
 .ARM.attributes
                0x0000020f       0x2b common/libcommon.a(cmd_bdinfo.o)
 .ARM.attributes
                0x0000023a       0x2b common/libcommon.a(cmd_boot.o)
 .ARM.attributes
                0x00000265       0x2b common/libcommon.a(cmd_bootm.o)
 .ARM.attributes
                0x00000290       0x2b common/libcommon.a(cmd_console.o)
 .ARM.attributes
                0x000002bb       0x2b common/libcommon.a(cmd_fat.o)
 .ARM.attributes
                0x000002e6       0x2b common/libcommon.a(cmd_flash.o)
 .ARM.attributes
                0x00000311       0x2b common/libcommon.a(cmd_i2c.o)
 .ARM.attributes
                0x0000033c       0x2b common/libcommon.a(cmd_ide.o)
 .ARM.attributes
                0x00000367       0x2b common/libcommon.a(cmd_itest.o)
 .ARM.attributes
                0x00000392       0x2b common/libcommon.a(cmd_load.o)
 .ARM.attributes
                0x000003bd       0x2b common/libcommon.a(cmd_mem.o)
 .ARM.attributes
                0x000003e8       0x2b common/libcommon.a(cmd_mii.o)
 .ARM.attributes
                0x00000413       0x2b common/libcommon.a(cmd_misc.o)
 .ARM.attributes
                0x0000043e       0x2b common/libcommon.a(cmd_mmc.o)
 .ARM.attributes
                0x00000469       0x2b common/libcommon.a(cmd_dma.o)
 .ARM.attributes
                0x00000494       0x2b common/libcommon.a(cmd_nand.o)
 .ARM.attributes
                0x000004bf       0x2b common/libcommon.a(cmd_net.o)
 .ARM.attributes
                0x000004ea       0x2b common/libcommon.a(cmd_nvedit.o)
 .ARM.attributes
                0x00000515       0x2b common/libcommon.a(cmd_usb.o)
 .ARM.attributes
                0x00000540       0x2b common/libcommon.a(command.o)
 .ARM.attributes
                0x0000056b       0x2b common/libcommon.a(console.o)
 .ARM.attributes
                0x00000596       0x2b common/libcommon.a(devices.o)
 .ARM.attributes
                0x000005c1       0x2b common/libcommon.a(dlmalloc.o)
 .ARM.attributes
                0x000005ec       0x2b common/libcommon.a(env_common.o)
 .ARM.attributes
                0x00000617       0x2b common/libcommon.a(env_flash.o)
 .ARM.attributes
                0x00000642       0x2b common/libcommon.a(exports.o)
 .ARM.attributes
                0x0000066d       0x2b common/libcommon.a(wmt_cmd_display.o)
 .ARM.attributes
                0x00000698       0x2b common/libcommon.a(minivgui.o)
 .ARM.attributes
                0x000006c3       0x2b common/libcommon.a(uboot-vpp.o)
 .ARM.attributes
                0x000006ee       0x2b common/libcommon.a(cmd_mbit.o)
 .ARM.attributes
                0x00000719       0x2b common/libcommon.a(cmd_textout.o)
 .ARM.attributes
                0x00000744       0x2b common/libcommon.a(env_parse.o)
 .ARM.attributes
                0x0000076f       0x2b common/libcommon.a(flash.o)
 .ARM.attributes
                0x0000079a       0x2b common/libcommon.a(hush.o)
 .ARM.attributes
                0x000007c5       0x2b common/libcommon.a(lists.o)
 .ARM.attributes
                0x000007f0       0x2b common/libcommon.a(miiphyutil.o)
 .ARM.attributes
                0x0000081b       0x2b common/libcommon.a(s_record.o)
 .ARM.attributes
                0x00000846       0x2b common/libcommon.a(usb.o)
 .ARM.attributes
                0x00000871       0x2b common/libcommon.a(usb_storage.o)
 .ARM.attributes
                0x0000089c       0x2b common/libcommon.a(pwm.o)
 .ARM.attributes
                0x000008c7       0x2b common/libcommon.a(wmt-ost.o)
 .ARM.attributes
                0x000008f2       0x2b common/libcommon.a(govrh.o)
 .ARM.attributes
                0x0000091d       0x2b common/libcommon.a(lcd.o)
 .ARM.attributes
                0x00000948       0x2b common/libcommon.a(lvds.o)
 .ARM.attributes
                0x00000973       0x2b common/libcommon.a(vpp.o)
 .ARM.attributes
                0x0000099e       0x2b common/libcommon.a(hdmi.o)
 .ARM.attributes
                0x000009c9       0x2b common/libcommon.a(vout-wmt.o)
 .ARM.attributes
                0x000009f4       0x2b common/libcommon.a(lcd-oem.o)
 .ARM.attributes
                0x00000a1f       0x2b common/libcommon.a(lcd-AUO-A080SN01.o)
 .ARM.attributes
                0x00000a4a       0x2b common/libcommon.a(lcd-INNOLUX-AT070TN83.o)
 .ARM.attributes
                0x00000a75       0x2b common/libcommon.a(lcd-CHILIN-LW700at9003.o)
 .ARM.attributes
                0x00000aa0       0x2b common/libcommon.a(lcd-EKING-EK08009-70135.o)
 .ARM.attributes
                0x00000acb       0x2b common/libcommon.a(lcd-HANNSTAR-HSD101PFW2.o)
 .ARM.attributes
                0x00000af6       0x2b common/libcommon.a(vt1632.o)
 .ARM.attributes
                0x00000b21       0x2b common/libcommon.a(sil902x.o)
 .ARM.attributes
                0x00000b4c       0x2b common/libcommon.a(vpp-osif.o)
 .ARM.attributes
                0x00000b77       0x2b common/libcommon.a(vout.o)
 .ARM.attributes
                0x00000ba2       0x2b common/libcommon.a(sw_i2c.o)
 .ARM.attributes
                0x00000bcd       0x2b common/libcommon.a(parse-edid.o)
 .ARM.attributes
                0x00000bf8       0x2b lib_generic/libgeneric.a(crc32.o)
 .ARM.attributes
                0x00000c23       0x2b lib_generic/libgeneric.a(ctype.o)
 .ARM.attributes
                0x00000c4e       0x2b lib_generic/libgeneric.a(display_options.o)
 .ARM.attributes
                0x00000c79       0x2b lib_generic/libgeneric.a(string.o)
 .ARM.attributes
                0x00000ca4       0x2b lib_generic/libgeneric.a(vsprintf.o)
 .ARM.attributes
                0x00000ccf       0x2b lib_generic/libgeneric.a(zlib.o)
 .ARM.attributes
                0x00000cfa       0x2b board/wmt/libwmt.a(wmt.o)
 .ARM.attributes
                0x00000d25       0x2b board/wmt/libwmt.a(flash.o)
 .ARM.attributes
                0x00000d50       0x2b board/wmt/libwmt.a(main.o)
 .ARM.attributes
                0x00000d7b       0x2b board/wmt/libwmt.a(spi_flash.o)
 .ARM.attributes
                0x00000da6       0x2b board/wmt/libwmt.a(nand_flash.o)
 .ARM.attributes
                0x00000dd1       0x2b board/wmt/libwmt.a(nor_flash_8bit.o)
 .ARM.attributes
                0x00000dfc       0x2b board/wmt/libwmt.a(nor_flash_16bit.o)
 .ARM.attributes
                0x00000e27       0x2b board/wmt/libwmt.a(wmt_clk.o)
 .ARM.attributes
                0x00000e52       0x2b board/wmt/libwmt.a(ehci-hcd.o)
 .ARM.attributes
                0x00000e7d       0x2b board/wmt/libwmt.a(usb_uhci.o)
 .ARM.attributes
                0x00000ea8       0x2b board/wmt/libwmt.a(wmt_i2c.o)
 .ARM.attributes
                0x00000ed3       0x2b board/wmt/libwmt.a(wmt_i2c_1.o)
 .ARM.attributes
                0x00000efe       0x2b cpu/arm920t/libarm920t.a(cpu.o)
 .ARM.attributes
                0x00000f29       0x2b cpu/arm920t/wmt/libwmt.a(serial.o)
 .ARM.attributes
                0x00000f54       0x2b cpu/arm920t/wmt/libwmt.a(ether.o)
 .ARM.attributes
                0x00000f7f       0x2b cpu/arm920t/wmt/libwmt.a(gmacif.o)
 .ARM.attributes
                0x00000faa       0x2b cpu/arm920t/wmt/libwmt.a(dma.o)
 .ARM.attributes
                0x00000fd5       0x2b cpu/arm920t/wmt/libwmt.a(mmc.o)
 .ARM.attributes
                0x00001000       0x2b cpu/arm920t/wmt/libwmt.a(pcinet.o)
 .ARM.attributes
                0x0000102b       0x2b cpu/arm920t/wmt/libwmt.a(gmii.o)
 .ARM.attributes
                0x00001056       0x2b cpu/arm920t/wmt/libwmt.a(gmib.o)
 .ARM.attributes
                0x00001081       0x2b cpu/arm920t/wmt/libwmt.a(galloct.o)
 .ARM.attributes
                0x000010ac       0x2b cpu/arm920t/wmt/libwmt.a(gmac.o)
 .ARM.attributes
                0x000010d7       0x2b cpu/arm920t/wmt/libwmt.a(gadapter.o)
 .ARM.attributes
                0x00001102       0x2b cpu/arm920t/wmt/libwmt.a(mem.o)
 .ARM.attributes
                0x0000112d       0x2b cpu/arm920t/wmt/libwmt.a(vpci.o)
 .ARM.attributes
                0x00001158       0x2b cpu/arm920t/wmt/libwmt.a(upcix.o)
 .ARM.attributes
                0x00001183       0x2b cpu/arm920t/wmt/libwmt.a(gcard.o)
 .ARM.attributes
                0x000011ae       0x2b cpu/arm920t/wmt/libwmt.a(gisr.o)
 .ARM.attributes
                0x000011d9       0x2b cpu/arm920t/wmt/libwmt.a(tconvert.o)
 .ARM.attributes
                0x00001204       0x2b cpu/arm920t/wmt/libwmt.a(tcrc.o)
 .ARM.attributes
                0x0000122f       0x2b lib_arm/libarm.a(armlinux.o)
 .ARM.attributes
                0x0000125a       0x2b lib_arm/libarm.a(cache.o)
 .ARM.attributes
                0x00001285       0x2b fs/fat/libfat.a(fat.o)
 .ARM.attributes
                0x000012b0       0x2b disk/libdisk.a(part.o)
 .ARM.attributes
                0x000012db       0x2b disk/libdisk.a(part_dos.o)
 .ARM.attributes
                0x00001306       0x2b cpu/arm920t/wmt/libwmt.a(zde.o)
 .ARM.attributes
                0x00001331       0x1a /root/Project/sdc1/AndroidPC_2.0/tools/arm-toolchain/bin/../lib/gcc/arm-none-eabi/4.5.2/libgcc.a(_udivsi3.o)
 .ARM.attributes
                0x0000134b       0x1a /root/Project/sdc1/AndroidPC_2.0/tools/arm-toolchain/bin/../lib/gcc/arm-none-eabi/4.5.2/libgcc.a(_divsi3.o)
 .ARM.attributes
                0x00001365       0x18 /root/Project/sdc1/AndroidPC_2.0/tools/arm-toolchain/bin/../lib/gcc/arm-none-eabi/4.5.2/libgcc.a(_dvmd_tls.o)
 .ARM.attributes
                0x0000137d       0x1a /root/Project/sdc1/AndroidPC_2.0/tools/arm-toolchain/bin/../lib/gcc/arm-none-eabi/4.5.2/libgcc.a(_ashldi3.o)

.comment        0x00000000       0x2a
 *(.comment)
 .comment       0x00000000       0x2a cpu/arm920t/libarm920t.a(interrupts.o)
                                 0x2b (size before relaxing)
 .comment       0x00000000       0x2b cpu/arm920t/wmt/libwmt.a(interrupts.o)
 .comment       0x00000000       0x2b lib_arm/libarm.a(board.o)
 .comment       0x00000000       0x2b net/libnet.a(net.o)
 .comment       0x00000000       0x2b net/libnet.a(tftp.o)
 .comment       0x00000000       0x2b net/libnet.a(bootp.o)
 .comment       0x00000000       0x2b net/libnet.a(rarp.o)
 .comment       0x00000000       0x2b net/libnet.a(eth.o)
 .comment       0x00000000       0x2b net/libnet.a(nfs.o)
 .comment       0x00000000       0x2b common/libcommon.a(main.o)
 .comment       0x00000000       0x2b common/libcommon.a(cmd_autoscript.o)
 .comment       0x00000000       0x2b common/libcommon.a(cmd_bdinfo.o)
 .comment       0x00000000       0x2b common/libcommon.a(cmd_boot.o)
 .comment       0x00000000       0x2b common/libcommon.a(cmd_bootm.o)
 .comment       0x00000000       0x2b common/libcommon.a(cmd_console.o)
 .comment       0x00000000       0x2b common/libcommon.a(cmd_fat.o)
 .comment       0x00000000       0x2b common/libcommon.a(cmd_flash.o)
 .comment       0x00000000       0x2b common/libcommon.a(cmd_i2c.o)
 .comment       0x00000000       0x2b common/libcommon.a(cmd_ide.o)
 .comment       0x00000000       0x2b common/libcommon.a(cmd_itest.o)
 .comment       0x00000000       0x2b common/libcommon.a(cmd_load.o)
 .comment       0x00000000       0x2b common/libcommon.a(cmd_mem.o)
 .comment       0x00000000       0x2b common/libcommon.a(cmd_mii.o)
 .comment       0x00000000       0x2b common/libcommon.a(cmd_misc.o)
 .comment       0x00000000       0x2b common/libcommon.a(cmd_mmc.o)
 .comment       0x00000000       0x2b common/libcommon.a(cmd_dma.o)
 .comment       0x00000000       0x2b common/libcommon.a(cmd_nand.o)
 .comment       0x00000000       0x2b common/libcommon.a(cmd_net.o)
 .comment       0x00000000       0x2b common/libcommon.a(cmd_nvedit.o)
 .comment       0x00000000       0x2b common/libcommon.a(cmd_usb.o)
 .comment       0x00000000       0x2b common/libcommon.a(command.o)
 .comment       0x00000000       0x2b common/libcommon.a(console.o)
 .comment       0x00000000       0x2b common/libcommon.a(devices.o)
 .comment       0x00000000       0x2b common/libcommon.a(dlmalloc.o)
 .comment       0x00000000       0x2b common/libcommon.a(env_common.o)
 .comment       0x00000000       0x2b common/libcommon.a(env_flash.o)
 .comment       0x00000000       0x2b common/libcommon.a(exports.o)
 .comment       0x00000000       0x2b common/libcommon.a(wmt_cmd_display.o)
 .comment       0x00000000       0x2b common/libcommon.a(minivgui.o)
 .comment       0x00000000       0x2b common/libcommon.a(uboot-vpp.o)
 .comment       0x00000000       0x2b common/libcommon.a(cmd_mbit.o)
 .comment       0x00000000       0x2b common/libcommon.a(cmd_textout.o)
 .comment       0x00000000       0x2b common/libcommon.a(env_parse.o)
 .comment       0x00000000       0x2b common/libcommon.a(flash.o)
 .comment       0x00000000       0x2b common/libcommon.a(hush.o)
 .comment       0x00000000       0x2b common/libcommon.a(lists.o)
 .comment       0x00000000       0x2b common/libcommon.a(miiphyutil.o)
 .comment       0x00000000       0x2b common/libcommon.a(s_record.o)
 .comment       0x00000000       0x2b common/libcommon.a(usb.o)
 .comment       0x00000000       0x2b common/libcommon.a(usb_storage.o)
 .comment       0x00000000       0x2b common/libcommon.a(pwm.o)
 .comment       0x00000000       0x2b common/libcommon.a(wmt-ost.o)
 .comment       0x00000000       0x2b common/libcommon.a(govrh.o)
 .comment       0x00000000       0x2b common/libcommon.a(lcd.o)
 .comment       0x00000000       0x2b common/libcommon.a(lvds.o)
 .comment       0x00000000       0x2b common/libcommon.a(vpp.o)
 .comment       0x00000000       0x2b common/libcommon.a(hdmi.o)
 .comment       0x00000000       0x2b common/libcommon.a(vout-wmt.o)
 .comment       0x00000000       0x2b common/libcommon.a(lcd-oem.o)
 .comment       0x00000000       0x2b common/libcommon.a(lcd-AUO-A080SN01.o)
 .comment       0x00000000       0x2b common/libcommon.a(lcd-INNOLUX-AT070TN83.o)
 .comment       0x00000000       0x2b common/libcommon.a(lcd-CHILIN-LW700at9003.o)
 .comment       0x00000000       0x2b common/libcommon.a(lcd-EKING-EK08009-70135.o)
 .comment       0x00000000       0x2b common/libcommon.a(lcd-HANNSTAR-HSD101PFW2.o)
 .comment       0x00000000       0x2b common/libcommon.a(vt1632.o)
 .comment       0x00000000       0x2b common/libcommon.a(sil902x.o)
 .comment       0x00000000       0x2b common/libcommon.a(vpp-osif.o)
 .comment       0x00000000       0x2b common/libcommon.a(vout.o)
 .comment       0x00000000       0x2b common/libcommon.a(sw_i2c.o)
 .comment       0x00000000       0x2b common/libcommon.a(parse-edid.o)
 .comment       0x00000000       0x2b lib_generic/libgeneric.a(crc32.o)
 .comment       0x00000000       0x2b lib_generic/libgeneric.a(ctype.o)
 .comment       0x00000000       0x2b lib_generic/libgeneric.a(display_options.o)
 .comment       0x00000000       0x2b lib_generic/libgeneric.a(string.o)
 .comment       0x00000000       0x2b lib_generic/libgeneric.a(vsprintf.o)
 .comment       0x00000000       0x2b lib_generic/libgeneric.a(zlib.o)
 .comment       0x00000000       0x2b board/wmt/libwmt.a(wmt.o)
 .comment       0x00000000       0x2b board/wmt/libwmt.a(flash.o)
 .comment       0x00000000       0x2b board/wmt/libwmt.a(main.o)
 .comment       0x00000000       0x2b board/wmt/libwmt.a(spi_flash.o)
 .comment       0x00000000       0x2b board/wmt/libwmt.a(nand_flash.o)
 .comment       0x00000000       0x2b board/wmt/libwmt.a(nor_flash_8bit.o)
 .comment       0x00000000       0x2b board/wmt/libwmt.a(nor_flash_16bit.o)
 .comment       0x00000000       0x2b board/wmt/libwmt.a(wmt_clk.o)
 .comment       0x00000000       0x2b board/wmt/libwmt.a(ehci-hcd.o)
 .comment       0x00000000       0x2b board/wmt/libwmt.a(usb_uhci.o)
 .comment       0x00000000       0x2b board/wmt/libwmt.a(wmt_i2c.o)
 .comment       0x00000000       0x2b board/wmt/libwmt.a(wmt_i2c_1.o)
 .comment       0x00000000       0x2b cpu/arm920t/libarm920t.a(cpu.o)
 .comment       0x00000000       0x2b cpu/arm920t/wmt/libwmt.a(serial.o)
 .comment       0x00000000       0x2b cpu/arm920t/wmt/libwmt.a(ether.o)
 .comment       0x00000000       0x2b cpu/arm920t/wmt/libwmt.a(gmacif.o)
 .comment       0x00000000       0x2b cpu/arm920t/wmt/libwmt.a(dma.o)
 .comment       0x00000000       0x2b cpu/arm920t/wmt/libwmt.a(mmc.o)
 .comment       0x00000000       0x2b cpu/arm920t/wmt/libwmt.a(pcinet.o)
 .comment       0x00000000       0x2b cpu/arm920t/wmt/libwmt.a(gmii.o)
 .comment       0x00000000       0x2b cpu/arm920t/wmt/libwmt.a(gmib.o)
 .comment       0x00000000       0x2b cpu/arm920t/wmt/libwmt.a(galloct.o)
 .comment       0x00000000       0x2b cpu/arm920t/wmt/libwmt.a(gmac.o)
 .comment       0x00000000       0x2b cpu/arm920t/wmt/libwmt.a(gadapter.o)
 .comment       0x00000000       0x2b cpu/arm920t/wmt/libwmt.a(mem.o)
 .comment       0x00000000       0x2b cpu/arm920t/wmt/libwmt.a(vpci.o)
 .comment       0x00000000       0x2b cpu/arm920t/wmt/libwmt.a(upcix.o)
 .comment       0x00000000       0x2b cpu/arm920t/wmt/libwmt.a(gcard.o)
 .comment       0x00000000       0x2b cpu/arm920t/wmt/libwmt.a(gisr.o)
 .comment       0x00000000       0x2b cpu/arm920t/wmt/libwmt.a(tconvert.o)
 .comment       0x00000000       0x2b cpu/arm920t/wmt/libwmt.a(tcrc.o)
 .comment       0x00000000       0x2b lib_arm/libarm.a(armlinux.o)
 .comment       0x00000000       0x2b lib_arm/libarm.a(cache.o)
 .comment       0x00000000       0x2b fs/fat/libfat.a(fat.o)
 .comment       0x00000000       0x2b disk/libdisk.a(part.o)
 .comment       0x00000000       0x2b disk/libdisk.a(part_dos.o)
 .comment       0x00000000       0x2b cpu/arm920t/wmt/libwmt.a(zde.o)

.debug
 *(.debug)

.line
 *(.line)

.debug_srcinfo
 *(.debug_srcinfo)

.debug_sfnames
 *(.debug_sfnames)

.debug_aranges  0x00000000      0xe40
 *(.debug_aranges)
 .debug_aranges
                0x00000000       0x20 cpu/arm920t/start.o
 .debug_aranges
                0x00000020       0x20 board/wmt/libwmt.a(lowlevel_init.o)
 .debug_aranges
                0x00000040       0x20 cpu/arm920t/libarm920t.a(interrupts.o)
 .debug_aranges
                0x00000060       0x20 cpu/arm920t/wmt/libwmt.a(interrupts.o)
 .debug_aranges
                0x00000080       0x20 lib_arm/libarm.a(board.o)
 .debug_aranges
                0x000000a0       0x20 net/libnet.a(net.o)
 .debug_aranges
                0x000000c0       0x20 net/libnet.a(tftp.o)
 .debug_aranges
                0x000000e0       0x20 net/libnet.a(bootp.o)
 .debug_aranges
                0x00000100       0x20 net/libnet.a(rarp.o)
 .debug_aranges
                0x00000120       0x20 net/libnet.a(eth.o)
 .debug_aranges
                0x00000140       0x20 net/libnet.a(nfs.o)
 .debug_aranges
                0x00000160       0x20 common/libcommon.a(main.o)
 .debug_aranges
                0x00000180       0x20 common/libcommon.a(cmd_autoscript.o)
 .debug_aranges
                0x000001a0       0x20 common/libcommon.a(cmd_bdinfo.o)
 .debug_aranges
                0x000001c0       0x20 common/libcommon.a(cmd_boot.o)
 .debug_aranges
                0x000001e0       0x20 common/libcommon.a(cmd_bootm.o)
 .debug_aranges
                0x00000200       0x20 common/libcommon.a(cmd_console.o)
 .debug_aranges
                0x00000220       0x20 common/libcommon.a(cmd_fat.o)
 .debug_aranges
                0x00000240       0x20 common/libcommon.a(cmd_flash.o)
 .debug_aranges
                0x00000260       0x20 common/libcommon.a(cmd_i2c.o)
 .debug_aranges
                0x00000280       0x20 common/libcommon.a(cmd_ide.o)
 .debug_aranges
                0x000002a0       0x20 common/libcommon.a(cmd_itest.o)
 .debug_aranges
                0x000002c0       0x20 common/libcommon.a(cmd_load.o)
 .debug_aranges
                0x000002e0       0x20 common/libcommon.a(cmd_mem.o)
 .debug_aranges
                0x00000300       0x20 common/libcommon.a(cmd_mii.o)
 .debug_aranges
                0x00000320       0x20 common/libcommon.a(cmd_misc.o)
 .debug_aranges
                0x00000340       0x20 common/libcommon.a(cmd_mmc.o)
 .debug_aranges
                0x00000360       0x20 common/libcommon.a(cmd_dma.o)
 .debug_aranges
                0x00000380       0x20 common/libcommon.a(cmd_nand.o)
 .debug_aranges
                0x000003a0       0x20 common/libcommon.a(cmd_net.o)
 .debug_aranges
                0x000003c0       0x20 common/libcommon.a(cmd_nvedit.o)
 .debug_aranges
                0x000003e0       0x20 common/libcommon.a(cmd_usb.o)
 .debug_aranges
                0x00000400       0x20 common/libcommon.a(command.o)
 .debug_aranges
                0x00000420       0x20 common/libcommon.a(console.o)
 .debug_aranges
                0x00000440       0x20 common/libcommon.a(devices.o)
 .debug_aranges
                0x00000460       0x20 common/libcommon.a(dlmalloc.o)
 .debug_aranges
                0x00000480       0x20 common/libcommon.a(env_common.o)
 .debug_aranges
                0x000004a0       0x20 common/libcommon.a(env_flash.o)
 .debug_aranges
                0x000004c0       0x20 common/libcommon.a(exports.o)
 .debug_aranges
                0x000004e0       0x20 common/libcommon.a(wmt_cmd_display.o)
 .debug_aranges
                0x00000500       0x20 common/libcommon.a(minivgui.o)
 .debug_aranges
                0x00000520       0x20 common/libcommon.a(uboot-vpp.o)
 .debug_aranges
                0x00000540       0x20 common/libcommon.a(cmd_mbit.o)
 .debug_aranges
                0x00000560       0x20 common/libcommon.a(cmd_textout.o)
 .debug_aranges
                0x00000580       0x20 common/libcommon.a(env_parse.o)
 .debug_aranges
                0x000005a0       0x20 common/libcommon.a(flash.o)
 .debug_aranges
                0x000005c0       0x20 common/libcommon.a(hush.o)
 .debug_aranges
                0x000005e0       0x20 common/libcommon.a(lists.o)
 .debug_aranges
                0x00000600       0x20 common/libcommon.a(miiphyutil.o)
 .debug_aranges
                0x00000620       0x20 common/libcommon.a(s_record.o)
 .debug_aranges
                0x00000640       0x20 common/libcommon.a(usb.o)
 .debug_aranges
                0x00000660       0x20 common/libcommon.a(usb_storage.o)
 .debug_aranges
                0x00000680       0x20 common/libcommon.a(pwm.o)
 .debug_aranges
                0x000006a0       0x20 common/libcommon.a(wmt-ost.o)
 .debug_aranges
                0x000006c0       0x20 common/libcommon.a(govrh.o)
 .debug_aranges
                0x000006e0       0x20 common/libcommon.a(lcd.o)
 .debug_aranges
                0x00000700       0x20 common/libcommon.a(lvds.o)
 .debug_aranges
                0x00000720       0x20 common/libcommon.a(vpp.o)
 .debug_aranges
                0x00000740       0x20 common/libcommon.a(hdmi.o)
 .debug_aranges
                0x00000760       0x20 common/libcommon.a(vout-wmt.o)
 .debug_aranges
                0x00000780       0x20 common/libcommon.a(lcd-oem.o)
 .debug_aranges
                0x000007a0       0x20 common/libcommon.a(lcd-AUO-A080SN01.o)
 .debug_aranges
                0x000007c0       0x20 common/libcommon.a(lcd-INNOLUX-AT070TN83.o)
 .debug_aranges
                0x000007e0       0x20 common/libcommon.a(lcd-CHILIN-LW700at9003.o)
 .debug_aranges
                0x00000800       0x20 common/libcommon.a(lcd-EKING-EK08009-70135.o)
 .debug_aranges
                0x00000820       0x20 common/libcommon.a(lcd-HANNSTAR-HSD101PFW2.o)
 .debug_aranges
                0x00000840       0x20 common/libcommon.a(vt1632.o)
 .debug_aranges
                0x00000860       0x20 common/libcommon.a(sil902x.o)
 .debug_aranges
                0x00000880       0x20 common/libcommon.a(vpp-osif.o)
 .debug_aranges
                0x000008a0       0x20 common/libcommon.a(vout.o)
 .debug_aranges
                0x000008c0       0x20 common/libcommon.a(sw_i2c.o)
 .debug_aranges
                0x000008e0       0x20 common/libcommon.a(parse-edid.o)
 .debug_aranges
                0x00000900       0x20 lib_generic/libgeneric.a(crc32.o)
 .debug_aranges
                0x00000920       0x20 lib_generic/libgeneric.a(display_options.o)
 .debug_aranges
                0x00000940       0x20 lib_generic/libgeneric.a(string.o)
 .debug_aranges
                0x00000960       0x20 lib_generic/libgeneric.a(vsprintf.o)
 .debug_aranges
                0x00000980       0x20 lib_generic/libgeneric.a(zlib.o)
 .debug_aranges
                0x000009a0       0x20 board/wmt/libwmt.a(wmt.o)
 .debug_aranges
                0x000009c0       0x20 board/wmt/libwmt.a(flash.o)
 .debug_aranges
                0x000009e0       0x20 board/wmt/libwmt.a(main.o)
 .debug_aranges
                0x00000a00       0x20 board/wmt/libwmt.a(spi_flash.o)
 .debug_aranges
                0x00000a20       0x20 board/wmt/libwmt.a(nand_flash.o)
 .debug_aranges
                0x00000a40       0x20 board/wmt/libwmt.a(nor_flash_8bit.o)
 .debug_aranges
                0x00000a60       0x20 board/wmt/libwmt.a(nor_flash_16bit.o)
 .debug_aranges
                0x00000a80       0x20 board/wmt/libwmt.a(wmt_clk.o)
 .debug_aranges
                0x00000aa0       0x20 board/wmt/libwmt.a(ehci-hcd.o)
 .debug_aranges
                0x00000ac0       0x20 board/wmt/libwmt.a(usb_uhci.o)
 .debug_aranges
                0x00000ae0       0x20 board/wmt/libwmt.a(wmt_i2c.o)
 .debug_aranges
                0x00000b00       0x20 board/wmt/libwmt.a(wmt_i2c_1.o)
 .debug_aranges
                0x00000b20       0x20 cpu/arm920t/libarm920t.a(cpu.o)
 .debug_aranges
                0x00000b40       0x20 cpu/arm920t/wmt/libwmt.a(serial.o)
 .debug_aranges
                0x00000b60       0x20 cpu/arm920t/wmt/libwmt.a(ether.o)
 .debug_aranges
                0x00000b80       0x20 cpu/arm920t/wmt/libwmt.a(gmacif.o)
 .debug_aranges
                0x00000ba0       0x20 cpu/arm920t/wmt/libwmt.a(dma.o)
 .debug_aranges
                0x00000bc0       0x20 cpu/arm920t/wmt/libwmt.a(mmc.o)
 .debug_aranges
                0x00000be0       0x20 cpu/arm920t/wmt/libwmt.a(pcinet.o)
 .debug_aranges
                0x00000c00       0x20 cpu/arm920t/wmt/libwmt.a(gmii.o)
 .debug_aranges
                0x00000c20       0x20 cpu/arm920t/wmt/libwmt.a(gmib.o)
 .debug_aranges
                0x00000c40       0x20 cpu/arm920t/wmt/libwmt.a(galloct.o)
 .debug_aranges
                0x00000c60       0x20 cpu/arm920t/wmt/libwmt.a(gmac.o)
 .debug_aranges
                0x00000c80       0x20 cpu/arm920t/wmt/libwmt.a(gadapter.o)
 .debug_aranges
                0x00000ca0       0x20 cpu/arm920t/wmt/libwmt.a(mem.o)
 .debug_aranges
                0x00000cc0       0x20 cpu/arm920t/wmt/libwmt.a(vpci.o)
 .debug_aranges
                0x00000ce0       0x20 cpu/arm920t/wmt/libwmt.a(upcix.o)
 .debug_aranges
                0x00000d00       0x20 cpu/arm920t/wmt/libwmt.a(gcard.o)
 .debug_aranges
                0x00000d20       0x20 cpu/arm920t/wmt/libwmt.a(gisr.o)
 .debug_aranges
                0x00000d40       0x20 cpu/arm920t/wmt/libwmt.a(tconvert.o)
 .debug_aranges
                0x00000d60       0x20 cpu/arm920t/wmt/libwmt.a(tcrc.o)
 .debug_aranges
                0x00000d80       0x20 lib_arm/libarm.a(armlinux.o)
 .debug_aranges
                0x00000da0       0x20 lib_arm/libarm.a(cache.o)
 .debug_aranges
                0x00000dc0       0x20 fs/fat/libfat.a(fat.o)
 .debug_aranges
                0x00000de0       0x20 disk/libdisk.a(part.o)
 .debug_aranges
                0x00000e00       0x20 disk/libdisk.a(part_dos.o)
 .debug_aranges
                0x00000e20       0x20 cpu/arm920t/wmt/libwmt.a(zde.o)

.debug_pubnames
                0x00000000     0x6e3b
 *(.debug_pubnames)
 .debug_pubnames
                0x00000000       0xdf cpu/arm920t/libarm920t.a(interrupts.o)
 .debug_pubnames
                0x000000df       0xc4 cpu/arm920t/wmt/libwmt.a(interrupts.o)
 .debug_pubnames
                0x000001a3       0x90 lib_arm/libarm.a(board.o)
 .debug_pubnames
                0x00000233      0x3f9 net/libnet.a(net.o)
 .debug_pubnames
                0x0000062c       0x20 net/libnet.a(tftp.o)
 .debug_pubnames
                0x0000064c       0x82 net/libnet.a(bootp.o)
 .debug_pubnames
                0x000006ce       0x2e net/libnet.a(rarp.o)
 .debug_pubnames
                0x000006fc       0x25 net/libnet.a(eth.o)
 .debug_pubnames
                0x00000721       0x1f net/libnet.a(nfs.o)
 .debug_pubnames
                0x00000740       0x5b common/libcommon.a(main.o)
 .debug_pubnames
                0x0000079b       0x4c common/libcommon.a(cmd_autoscript.o)
 .debug_pubnames
                0x000007e7       0x3f common/libcommon.a(cmd_bdinfo.o)
 .debug_pubnames
                0x00000826       0x47 common/libcommon.a(cmd_boot.o)
 .debug_pubnames
                0x0000086d       0xeb common/libcommon.a(cmd_bootm.o)
 .debug_pubnames
                0x00000958       0x3a common/libcommon.a(cmd_console.o)
 .debug_pubnames
                0x00000992       0xc6 common/libcommon.a(cmd_fat.o)
 .debug_pubnames
                0x00000a58       0xb2 common/libcommon.a(cmd_flash.o)
 .debug_pubnames
                0x00000b0a      0x13d common/libcommon.a(cmd_i2c.o)
 .debug_pubnames
                0x00000c47       0xb8 common/libcommon.a(cmd_ide.o)
 .debug_pubnames
                0x00000cff       0x53 common/libcommon.a(cmd_itest.o)
 .debug_pubnames
                0x00000d52      0x1b9 common/libcommon.a(cmd_load.o)
 .debug_pubnames
                0x00000f0b      0x1e7 common/libcommon.a(cmd_mem.o)
 .debug_pubnames
                0x000010f2      0x13e common/libcommon.a(cmd_mii.o)
 .debug_pubnames
                0x00001230       0x36 common/libcommon.a(cmd_misc.o)
 .debug_pubnames
                0x00001266       0xbc common/libcommon.a(cmd_mmc.o)
 .debug_pubnames
                0x00001322       0x64 common/libcommon.a(cmd_dma.o)
 .debug_pubnames
                0x00001386      0x597 common/libcommon.a(cmd_nand.o)
 .debug_pubnames
                0x0000191d       0xe8 common/libcommon.a(cmd_net.o)
 .debug_pubnames
                0x00001a05       0xd8 common/libcommon.a(cmd_nvedit.o)
 .debug_pubnames
                0x00001add      0x142 common/libcommon.a(cmd_usb.o)
 .debug_pubnames
                0x00001c1f      0x12f common/libcommon.a(command.o)
 .debug_pubnames
                0x00001d4e      0x115 common/libcommon.a(console.o)
 .debug_pubnames
                0x00001e63       0x76 common/libcommon.a(devices.o)
 .debug_pubnames
                0x00001ed9       0xba common/libcommon.a(dlmalloc.o)
 .debug_pubnames
                0x00001f93       0xa0 common/libcommon.a(env_common.o)
 .debug_pubnames
                0x00002033       0x7c common/libcommon.a(env_flash.o)
 .debug_pubnames
                0x000020af       0x3c common/libcommon.a(exports.o)
 .debug_pubnames
                0x000020eb       0x4e common/libcommon.a(wmt_cmd_display.o)
 .debug_pubnames
                0x00002139       0x91 common/libcommon.a(minivgui.o)
 .debug_pubnames
                0x000021ca      0x16c common/libcommon.a(uboot-vpp.o)
 .debug_pubnames
                0x00002336       0x3a common/libcommon.a(cmd_mbit.o)
 .debug_pubnames
                0x00002370       0x50 common/libcommon.a(cmd_textout.o)
 .debug_pubnames
                0x000023c0       0x40 common/libcommon.a(env_parse.o)
 .debug_pubnames
                0x00002400       0x53 common/libcommon.a(flash.o)
 .debug_pubnames
                0x00002453       0xcf common/libcommon.a(hush.o)
 .debug_pubnames
                0x00002522      0x116 common/libcommon.a(lists.o)
 .debug_pubnames
                0x00002638       0xe4 common/libcommon.a(miiphyutil.o)
 .debug_pubnames
                0x0000271c       0x22 common/libcommon.a(s_record.o)
 .debug_pubnames
                0x0000273e      0x34a common/libcommon.a(usb.o)
 .debug_pubnames
                0x00002a88      0x15e common/libcommon.a(usb_storage.o)
 .debug_pubnames
                0x00002be6      0x109 common/libcommon.a(pwm.o)
 .debug_pubnames
                0x00002cef       0x58 common/libcommon.a(wmt-ost.o)
 .debug_pubnames
                0x00002d47      0x4f7 common/libcommon.a(govrh.o)
 .debug_pubnames
                0x0000323e      0x142 common/libcommon.a(lcd.o)
 .debug_pubnames
                0x00003380       0x88 common/libcommon.a(lvds.o)
 .debug_pubnames
                0x00003408      0x49f common/libcommon.a(vpp.o)
 .debug_pubnames
                0x000038a7      0x3b5 common/libcommon.a(hdmi.o)
 .debug_pubnames
                0x00003c5c      0x284 common/libcommon.a(vout-wmt.o)
 .debug_pubnames
                0x00003ee0       0x49 common/libcommon.a(lcd-oem.o)
 .debug_pubnames
                0x00003f29       0x58 common/libcommon.a(lcd-AUO-A080SN01.o)
 .debug_pubnames
                0x00003f81       0x5b common/libcommon.a(lcd-INNOLUX-AT070TN83.o)
 .debug_pubnames
                0x00003fdc       0x61 common/libcommon.a(lcd-CHILIN-LW700at9003.o)
 .debug_pubnames
                0x0000403d       0x55 common/libcommon.a(lcd-EKING-EK08009-70135.o)
 .debug_pubnames
                0x00004092       0x5e common/libcommon.a(lcd-HANNSTAR-HSD101PFW2.o)
 .debug_pubnames
                0x000040f0       0xbd common/libcommon.a(vt1632.o)
 .debug_pubnames
                0x000041ad      0x389 common/libcommon.a(sil902x.o)
 .debug_pubnames
                0x00004536      0x190 common/libcommon.a(vpp-osif.o)
 .debug_pubnames
                0x000046c6      0x172 common/libcommon.a(vout.o)
 .debug_pubnames
                0x00004838      0x1ae common/libcommon.a(sw_i2c.o)
 .debug_pubnames
                0x000049e6      0x119 common/libcommon.a(parse-edid.o)
 .debug_pubnames
                0x00004aff       0x1c lib_generic/libgeneric.a(crc32.o)
 .debug_pubnames
                0x00004b1b       0x1d lib_generic/libgeneric.a(ctype.o)
 .debug_pubnames
                0x00004b38       0x35 lib_generic/libgeneric.a(display_options.o)
 .debug_pubnames
                0x00004b6d      0x13d lib_generic/libgeneric.a(string.o)
 .debug_pubnames
                0x00004caa       0x6e lib_generic/libgeneric.a(vsprintf.o)
 .debug_pubnames
                0x00004d18       0xab lib_generic/libgeneric.a(zlib.o)
 .debug_pubnames
                0x00004dc3       0x61 board/wmt/libwmt.a(wmt.o)
 .debug_pubnames
                0x00004e24      0x12b board/wmt/libwmt.a(flash.o)
 .debug_pubnames
                0x00004f4f       0x2b board/wmt/libwmt.a(main.o)
 .debug_pubnames
                0x00004f7a       0x7a board/wmt/libwmt.a(spi_flash.o)
 .debug_pubnames
                0x00004ff4       0x69 board/wmt/libwmt.a(nand_flash.o)
 .debug_pubnames
                0x0000505d       0x77 board/wmt/libwmt.a(nor_flash_8bit.o)
 .debug_pubnames
                0x000050d4       0x7b board/wmt/libwmt.a(nor_flash_16bit.o)
 .debug_pubnames
                0x0000514f       0x3c board/wmt/libwmt.a(wmt_clk.o)
 .debug_pubnames
                0x0000518b      0x222 board/wmt/libwmt.a(ehci-hcd.o)
 .debug_pubnames
                0x000053ad      0x206 board/wmt/libwmt.a(usb_uhci.o)
 .debug_pubnames
                0x000055b3       0x8e board/wmt/libwmt.a(wmt_i2c.o)
 .debug_pubnames
                0x00005641       0x83 board/wmt/libwmt.a(wmt_i2c_1.o)
 .debug_pubnames
                0x000056c4       0x7c cpu/arm920t/libarm920t.a(cpu.o)
 .debug_pubnames
                0x00005740       0x96 cpu/arm920t/wmt/libwmt.a(serial.o)
 .debug_pubnames
                0x000057d6       0x87 cpu/arm920t/wmt/libwmt.a(ether.o)
 .debug_pubnames
                0x0000585d       0xb1 cpu/arm920t/wmt/libwmt.a(gmacif.o)
 .debug_pubnames
                0x0000590e      0x197 cpu/arm920t/wmt/libwmt.a(dma.o)
 .debug_pubnames
                0x00005aa5      0x342 cpu/arm920t/wmt/libwmt.a(mmc.o)
 .debug_pubnames
                0x00005de7      0x10f cpu/arm920t/wmt/libwmt.a(pcinet.o)
 .debug_pubnames
                0x00005ef6      0x179 cpu/arm920t/wmt/libwmt.a(gmii.o)
 .debug_pubnames
                0x0000606f      0x18d cpu/arm920t/wmt/libwmt.a(gmib.o)
 .debug_pubnames
                0x000061fc      0x180 cpu/arm920t/wmt/libwmt.a(galloct.o)
 .debug_pubnames
                0x0000637c      0x4da cpu/arm920t/wmt/libwmt.a(gmac.o)
 .debug_pubnames
                0x00006856       0x9c cpu/arm920t/wmt/libwmt.a(gadapter.o)
 .debug_pubnames
                0x000068f2       0x50 cpu/arm920t/wmt/libwmt.a(mem.o)
 .debug_pubnames
                0x00006942       0xaa cpu/arm920t/wmt/libwmt.a(vpci.o)
 .debug_pubnames
                0x000069ec       0x9e cpu/arm920t/wmt/libwmt.a(upcix.o)
 .debug_pubnames
                0x00006a8a       0x5f cpu/arm920t/wmt/libwmt.a(gcard.o)
 .debug_pubnames
                0x00006ae9       0xbe cpu/arm920t/wmt/libwmt.a(gisr.o)
 .debug_pubnames
                0x00006ba7       0x80 cpu/arm920t/wmt/libwmt.a(tconvert.o)
 .debug_pubnames
                0x00006c27       0x47 cpu/arm920t/wmt/libwmt.a(tcrc.o)
 .debug_pubnames
                0x00006c6e       0x2c lib_arm/libarm.a(armlinux.o)
 .debug_pubnames
                0x00006c9a       0x22 lib_arm/libarm.a(cache.o)
 .debug_pubnames
                0x00006cbc       0xb3 fs/fat/libfat.a(fat.o)
 .debug_pubnames
                0x00006d6f       0x54 disk/libdisk.a(part.o)
 .debug_pubnames
                0x00006dc3       0x52 disk/libdisk.a(part_dos.o)
 .debug_pubnames
                0x00006e15       0x26 cpu/arm920t/wmt/libwmt.a(zde.o)

.debug_info     0x00000000    0x5de39
 *(.debug_info)
 .debug_info    0x00000000       0x8d cpu/arm920t/start.o
 .debug_info    0x0000008d       0x9d board/wmt/libwmt.a(lowlevel_init.o)
 .debug_info    0x0000012a      0x260 cpu/arm920t/libarm920t.a(interrupts.o)
 .debug_info    0x0000038a      0xe0c cpu/arm920t/wmt/libwmt.a(interrupts.o)
 .debug_info    0x00001196      0x597 lib_arm/libarm.a(board.o)
 .debug_info    0x0000172d     0x1525 net/libnet.a(net.o)
 .debug_info    0x00002c52      0x4a4 net/libnet.a(tftp.o)
 .debug_info    0x000030f6      0xae6 net/libnet.a(bootp.o)
 .debug_info    0x00003bdc      0x2b2 net/libnet.a(rarp.o)
 .debug_info    0x00003e8e      0x17a net/libnet.a(eth.o)
 .debug_info    0x00004008      0xc2d net/libnet.a(nfs.o)
 .debug_info    0x00004c35      0x6ef common/libcommon.a(main.o)
 .debug_info    0x00005324      0x3e7 common/libcommon.a(cmd_autoscript.o)
 .debug_info    0x0000570b      0x3c5 common/libcommon.a(cmd_bdinfo.o)
 .debug_info    0x00005ad0      0x223 common/libcommon.a(cmd_boot.o)
 .debug_info    0x00005cf3      0xfb1 common/libcommon.a(cmd_bootm.o)
 .debug_info    0x00006ca4      0x3f2 common/libcommon.a(cmd_console.o)
 .debug_info    0x00007096      0x6b2 common/libcommon.a(cmd_fat.o)
 .debug_info    0x00007748      0x8f0 common/libcommon.a(cmd_flash.o)
 .debug_info    0x00008038      0x9d5 common/libcommon.a(cmd_i2c.o)
 .debug_info    0x00008a0d     0x1167 common/libcommon.a(cmd_ide.o)
 .debug_info    0x00009b74      0x4d6 common/libcommon.a(cmd_itest.o)
 .debug_info    0x0000a04a      0xd05 common/libcommon.a(cmd_load.o)
 .debug_info    0x0000ad4f      0xcd9 common/libcommon.a(cmd_mem.o)
 .debug_info    0x0000ba28      0x881 common/libcommon.a(cmd_mii.o)
 .debug_info    0x0000c2a9      0x1f4 common/libcommon.a(cmd_misc.o)
 .debug_info    0x0000c49d      0x46f common/libcommon.a(cmd_mmc.o)
 .debug_info    0x0000c90c      0x479 common/libcommon.a(cmd_dma.o)
 .debug_info    0x0000cd85     0x331c common/libcommon.a(cmd_nand.o)
 .debug_info    0x000100a1      0x6dc common/libcommon.a(cmd_net.o)
 .debug_info    0x0001077d      0x92f common/libcommon.a(cmd_nvedit.o)
 .debug_info    0x000110ac      0xed4 common/libcommon.a(cmd_usb.o)
 .debug_info    0x00011f80      0xbf5 common/libcommon.a(command.o)
 .debug_info    0x00012b75      0x96b common/libcommon.a(console.o)
 .debug_info    0x000134e0      0x317 common/libcommon.a(devices.o)
 .debug_info    0x000137f7      0xc2b common/libcommon.a(dlmalloc.o)
 .debug_info    0x00014422      0x49f common/libcommon.a(env_common.o)
 .debug_info    0x000148c1      0x4bf common/libcommon.a(env_flash.o)
 .debug_info    0x00014d80      0x2d0 common/libcommon.a(exports.o)
 .debug_info    0x00015050     0x14fe common/libcommon.a(wmt_cmd_display.o)
 .debug_info    0x0001654e     0x1919 common/libcommon.a(minivgui.o)
 .debug_info    0x00017e67     0x1ae4 common/libcommon.a(uboot-vpp.o)
 .debug_info    0x0001994b     0x107f common/libcommon.a(cmd_mbit.o)
 .debug_info    0x0001a9ca     0x13b2 common/libcommon.a(cmd_textout.o)
 .debug_info    0x0001bd7c      0xfd3 common/libcommon.a(env_parse.o)
 .debug_info    0x0001cd4f      0x366 common/libcommon.a(flash.o)
 .debug_info    0x0001d0b5     0x18e7 common/libcommon.a(hush.o)
 .debug_info    0x0001e99c      0x529 common/libcommon.a(lists.o)
 .debug_info    0x0001eec5      0x630 common/libcommon.a(miiphyutil.o)
 .debug_info    0x0001f4f5      0x18f common/libcommon.a(s_record.o)
 .debug_info    0x0001f684     0x179f common/libcommon.a(usb.o)
 .debug_info    0x00020e23     0x1611 common/libcommon.a(usb_storage.o)
 .debug_info    0x00022434     0x140e common/libcommon.a(pwm.o)
 .debug_info    0x00023842     0x102d common/libcommon.a(wmt-ost.o)
 .debug_info    0x0002486f     0x1e9d common/libcommon.a(govrh.o)
 .debug_info    0x0002670c     0x1758 common/libcommon.a(lcd.o)
 .debug_info    0x00027e64      0xe80 common/libcommon.a(lvds.o)
 .debug_info    0x00028ce4     0x2609 common/libcommon.a(vpp.o)
 .debug_info    0x0002b2ed     0x1b2a common/libcommon.a(hdmi.o)
 .debug_info    0x0002ce17     0x2cae common/libcommon.a(vout-wmt.o)
 .debug_info    0x0002fac5     0x1087 common/libcommon.a(lcd-oem.o)
 .debug_info    0x00030b4c     0x1087 common/libcommon.a(lcd-AUO-A080SN01.o)
 .debug_info    0x00031bd3     0x109a common/libcommon.a(lcd-INNOLUX-AT070TN83.o)
 .debug_info    0x00032c6d     0x109a common/libcommon.a(lcd-CHILIN-LW700at9003.o)
 .debug_info    0x00033d07     0x109a common/libcommon.a(lcd-EKING-EK08009-70135.o)
 .debug_info    0x00034da1     0x109a common/libcommon.a(lcd-HANNSTAR-HSD101PFW2.o)
 .debug_info    0x00035e3b     0x136c common/libcommon.a(vt1632.o)
 .debug_info    0x000371a7     0x1d02 common/libcommon.a(sil902x.o)
 .debug_info    0x00038ea9     0x163f common/libcommon.a(vpp-osif.o)
 .debug_info    0x0003a4e8     0x1803 common/libcommon.a(vout.o)
 .debug_info    0x0003bceb     0x1471 common/libcommon.a(sw_i2c.o)
 .debug_info    0x0003d15c     0x1831 common/libcommon.a(parse-edid.o)
 .debug_info    0x0003e98d      0x131 lib_generic/libgeneric.a(crc32.o)
 .debug_info    0x0003eabe       0x63 lib_generic/libgeneric.a(ctype.o)
 .debug_info    0x0003eb21      0x136 lib_generic/libgeneric.a(display_options.o)
 .debug_info    0x0003ec57      0x96d lib_generic/libgeneric.a(string.o)
 .debug_info    0x0003f5c4      0x4d4 lib_generic/libgeneric.a(vsprintf.o)
 .debug_info    0x0003fa98     0x17b3 lib_generic/libgeneric.a(zlib.o)
 .debug_info    0x0004124b      0x26c board/wmt/libwmt.a(wmt.o)
 .debug_info    0x000414b7      0x4d6 board/wmt/libwmt.a(flash.o)
 .debug_info    0x0004198d       0x87 board/wmt/libwmt.a(main.o)
 .debug_info    0x00041a14      0x7cb board/wmt/libwmt.a(spi_flash.o)
 .debug_info    0x000421df      0x21e board/wmt/libwmt.a(nand_flash.o)
 .debug_info    0x000423fd      0x878 board/wmt/libwmt.a(nor_flash_8bit.o)
 .debug_info    0x00042c75      0x8fd board/wmt/libwmt.a(nor_flash_16bit.o)
 .debug_info    0x00043572      0xb54 board/wmt/libwmt.a(wmt_clk.o)
 .debug_info    0x000440c6     0x1ba9 board/wmt/libwmt.a(ehci-hcd.o)
 .debug_info    0x00045c6f     0x116a board/wmt/libwmt.a(usb_uhci.o)
 .debug_info    0x00046dd9      0xa37 board/wmt/libwmt.a(wmt_i2c.o)
 .debug_info    0x00047810      0xa29 board/wmt/libwmt.a(wmt_i2c_1.o)
 .debug_info    0x00048239      0x2e0 cpu/arm920t/libarm920t.a(cpu.o)
 .debug_info    0x00048519      0x770 cpu/arm920t/wmt/libwmt.a(serial.o)
 .debug_info    0x00048c89      0x2ca cpu/arm920t/wmt/libwmt.a(ether.o)
 .debug_info    0x00048f53     0x201b cpu/arm920t/wmt/libwmt.a(gmacif.o)
 .debug_info    0x0004af6e      0xcbb cpu/arm920t/wmt/libwmt.a(dma.o)
 .debug_info    0x0004bc29     0x1bbc cpu/arm920t/wmt/libwmt.a(mmc.o)
 .debug_info    0x0004d7e5      0x5ae cpu/arm920t/wmt/libwmt.a(pcinet.o)
 .debug_info    0x0004dd93      0xe55 cpu/arm920t/wmt/libwmt.a(gmii.o)
 .debug_info    0x0004ebe8     0x1234 cpu/arm920t/wmt/libwmt.a(gmib.o)
 .debug_info    0x0004fe1c     0x196f cpu/arm920t/wmt/libwmt.a(galloct.o)
 .debug_info    0x0005178b     0x4551 cpu/arm920t/wmt/libwmt.a(gmac.o)
 .debug_info    0x00055cdc     0x1e10 cpu/arm920t/wmt/libwmt.a(gadapter.o)
 .debug_info    0x00057aec      0x299 cpu/arm920t/wmt/libwmt.a(mem.o)
 .debug_info    0x00057d85      0x412 cpu/arm920t/wmt/libwmt.a(vpci.o)
 .debug_info    0x00058197      0x55e cpu/arm920t/wmt/libwmt.a(upcix.o)
 .debug_info    0x000586f5      0x4a1 cpu/arm920t/wmt/libwmt.a(gcard.o)
 .debug_info    0x00058b96     0x1d98 cpu/arm920t/wmt/libwmt.a(gisr.o)
 .debug_info    0x0005a92e      0x39c cpu/arm920t/wmt/libwmt.a(tconvert.o)
 .debug_info    0x0005acca      0x18a cpu/arm920t/wmt/libwmt.a(tcrc.o)
 .debug_info    0x0005ae54      0xa97 lib_arm/libarm.a(armlinux.o)
 .debug_info    0x0005b8eb       0xa2 lib_arm/libarm.a(cache.o)
 .debug_info    0x0005b98d     0x18f3 fs/fat/libfat.a(fat.o)
 .debug_info    0x0005d280      0x3e2 disk/libdisk.a(part.o)
 .debug_info    0x0005d662      0x624 disk/libdisk.a(part_dos.o)
 .debug_info    0x0005dc86      0x1b3 cpu/arm920t/wmt/libwmt.a(zde.o)

.debug_abbrev   0x00000000     0xe794
 *(.debug_abbrev)
 .debug_abbrev  0x00000000       0x14 cpu/arm920t/start.o
 .debug_abbrev  0x00000014       0x14 board/wmt/libwmt.a(lowlevel_init.o)
 .debug_abbrev  0x00000028       0xf5 cpu/arm920t/libarm920t.a(interrupts.o)
 .debug_abbrev  0x0000011d      0x1be cpu/arm920t/wmt/libwmt.a(interrupts.o)
 .debug_abbrev  0x000002db      0x247 lib_arm/libarm.a(board.o)
 .debug_abbrev  0x00000522      0x3ab net/libnet.a(net.o)
 .debug_abbrev  0x000008cd      0x192 net/libnet.a(tftp.o)
 .debug_abbrev  0x00000a5f      0x35e net/libnet.a(bootp.o)
 .debug_abbrev  0x00000dbd      0x11b net/libnet.a(rarp.o)
 .debug_abbrev  0x00000ed8       0xac net/libnet.a(eth.o)
 .debug_abbrev  0x00000f84      0x2fe net/libnet.a(nfs.o)
 .debug_abbrev  0x00001282      0x294 common/libcommon.a(main.o)
 .debug_abbrev  0x00001516      0x148 common/libcommon.a(cmd_autoscript.o)
 .debug_abbrev  0x0000165e      0x15b common/libcommon.a(cmd_bdinfo.o)
 .debug_abbrev  0x000017b9       0xe7 common/libcommon.a(cmd_boot.o)
 .debug_abbrev  0x000018a0      0x38d common/libcommon.a(cmd_bootm.o)
 .debug_abbrev  0x00001c2d      0x134 common/libcommon.a(cmd_console.o)
 .debug_abbrev  0x00001d61      0x16b common/libcommon.a(cmd_fat.o)
 .debug_abbrev  0x00001ecc      0x1d1 common/libcommon.a(cmd_flash.o)
 .debug_abbrev  0x0000209d      0x227 common/libcommon.a(cmd_i2c.o)
 .debug_abbrev  0x000022c4      0x388 common/libcommon.a(cmd_ide.o)
 .debug_abbrev  0x0000264c      0x1aa common/libcommon.a(cmd_itest.o)
 .debug_abbrev  0x000027f6      0x3c0 common/libcommon.a(cmd_load.o)
 .debug_abbrev  0x00002bb6      0x234 common/libcommon.a(cmd_mem.o)
 .debug_abbrev  0x00002dea      0x257 common/libcommon.a(cmd_mii.o)
 .debug_abbrev  0x00003041       0xe7 common/libcommon.a(cmd_misc.o)
 .debug_abbrev  0x00003128      0x133 common/libcommon.a(cmd_mmc.o)
 .debug_abbrev  0x0000325b      0x18a common/libcommon.a(cmd_dma.o)
 .debug_abbrev  0x000033e5      0x44f common/libcommon.a(cmd_nand.o)
 .debug_abbrev  0x00003834      0x1c5 common/libcommon.a(cmd_net.o)
 .debug_abbrev  0x000039f9      0x249 common/libcommon.a(cmd_nvedit.o)
 .debug_abbrev  0x00003c42      0x22b common/libcommon.a(cmd_usb.o)
 .debug_abbrev  0x00003e6d      0x2bb common/libcommon.a(command.o)
 .debug_abbrev  0x00004128      0x2d7 common/libcommon.a(console.o)
 .debug_abbrev  0x000043ff      0x16b common/libcommon.a(devices.o)
 .debug_abbrev  0x0000456a      0x27f common/libcommon.a(dlmalloc.o)
 .debug_abbrev  0x000047e9      0x1c5 common/libcommon.a(env_common.o)
 .debug_abbrev  0x000049ae      0x1db common/libcommon.a(env_flash.o)
 .debug_abbrev  0x00004b89      0x12b common/libcommon.a(exports.o)
 .debug_abbrev  0x00004cb4      0x20b common/libcommon.a(wmt_cmd_display.o)
 .debug_abbrev  0x00004ebf      0x36a common/libcommon.a(minivgui.o)
 .debug_abbrev  0x00005229      0x2f4 common/libcommon.a(uboot-vpp.o)
 .debug_abbrev  0x0000551d      0x1df common/libcommon.a(cmd_mbit.o)
 .debug_abbrev  0x000056fc      0x1f3 common/libcommon.a(cmd_textout.o)
 .debug_abbrev  0x000058ef      0x1ac common/libcommon.a(env_parse.o)
 .debug_abbrev  0x00005a9b      0x17e common/libcommon.a(flash.o)
 .debug_abbrev  0x00005c19      0x3c6 common/libcommon.a(hush.o)
 .debug_abbrev  0x00005fdf      0x1f4 common/libcommon.a(lists.o)
 .debug_abbrev  0x000061d3      0x1bf common/libcommon.a(miiphyutil.o)
 .debug_abbrev  0x00006392       0xc3 common/libcommon.a(s_record.o)
 .debug_abbrev  0x00006455      0x349 common/libcommon.a(usb.o)
 .debug_abbrev  0x0000679e      0x376 common/libcommon.a(usb_storage.o)
 .debug_abbrev  0x00006b14      0x207 common/libcommon.a(pwm.o)
 .debug_abbrev  0x00006d1b      0x18c common/libcommon.a(wmt-ost.o)
 .debug_abbrev  0x00006ea7      0x2da common/libcommon.a(govrh.o)
 .debug_abbrev  0x00007181      0x229 common/libcommon.a(lcd.o)
 .debug_abbrev  0x000073aa      0x191 common/libcommon.a(lvds.o)
 .debug_abbrev  0x0000753b      0x371 common/libcommon.a(vpp.o)
 .debug_abbrev  0x000078ac      0x36e common/libcommon.a(hdmi.o)
 .debug_abbrev  0x00007c1a      0x30c common/libcommon.a(vout-wmt.o)
 .debug_abbrev  0x00007f26      0x192 common/libcommon.a(lcd-oem.o)
 .debug_abbrev  0x000080b8      0x192 common/libcommon.a(lcd-AUO-A080SN01.o)
 .debug_abbrev  0x0000824a      0x192 common/libcommon.a(lcd-INNOLUX-AT070TN83.o)
 .debug_abbrev  0x000083dc      0x192 common/libcommon.a(lcd-CHILIN-LW700at9003.o)
 .debug_abbrev  0x0000856e      0x192 common/libcommon.a(lcd-EKING-EK08009-70135.o)
 .debug_abbrev  0x00008700      0x192 common/libcommon.a(lcd-HANNSTAR-HSD101PFW2.o)
 .debug_abbrev  0x00008892      0x204 common/libcommon.a(vt1632.o)
 .debug_abbrev  0x00008a96      0x355 common/libcommon.a(sil902x.o)
 .debug_abbrev  0x00008deb      0x32b common/libcommon.a(vpp-osif.o)
 .debug_abbrev  0x00009116      0x2ba common/libcommon.a(vout.o)
 .debug_abbrev  0x000093d0      0x2ab common/libcommon.a(sw_i2c.o)
 .debug_abbrev  0x0000967b      0x32e common/libcommon.a(parse-edid.o)
 .debug_abbrev  0x000099a9       0x90 lib_generic/libgeneric.a(crc32.o)
 .debug_abbrev  0x00009a39       0x53 lib_generic/libgeneric.a(ctype.o)
 .debug_abbrev  0x00009a8c       0xc3 lib_generic/libgeneric.a(display_options.o)
 .debug_abbrev  0x00009b4f      0x1d7 lib_generic/libgeneric.a(string.o)
 .debug_abbrev  0x00009d26      0x1b4 lib_generic/libgeneric.a(vsprintf.o)
 .debug_abbrev  0x00009eda      0x31b lib_generic/libgeneric.a(zlib.o)
 .debug_abbrev  0x0000a1f5      0x108 board/wmt/libwmt.a(wmt.o)
 .debug_abbrev  0x0000a2fd      0x1cc board/wmt/libwmt.a(flash.o)
 .debug_abbrev  0x0000a4c9       0x63 board/wmt/libwmt.a(main.o)
 .debug_abbrev  0x0000a52c      0x24b board/wmt/libwmt.a(spi_flash.o)
 .debug_abbrev  0x0000a777       0xe9 board/wmt/libwmt.a(nand_flash.o)
 .debug_abbrev  0x0000a860      0x25e board/wmt/libwmt.a(nor_flash_8bit.o)
 .debug_abbrev  0x0000aabe      0x284 board/wmt/libwmt.a(nor_flash_16bit.o)
 .debug_abbrev  0x0000ad42      0x230 board/wmt/libwmt.a(wmt_clk.o)
 .debug_abbrev  0x0000af72      0x398 board/wmt/libwmt.a(ehci-hcd.o)
 .debug_abbrev  0x0000b30a      0x331 board/wmt/libwmt.a(usb_uhci.o)
 .debug_abbrev  0x0000b63b      0x301 board/wmt/libwmt.a(wmt_i2c.o)
 .debug_abbrev  0x0000b93c      0x2df board/wmt/libwmt.a(wmt_i2c_1.o)
 .debug_abbrev  0x0000bc1b      0x161 cpu/arm920t/libarm920t.a(cpu.o)
 .debug_abbrev  0x0000bd7c      0x17e cpu/arm920t/wmt/libwmt.a(serial.o)
 .debug_abbrev  0x0000befa      0x13c cpu/arm920t/wmt/libwmt.a(ether.o)
 .debug_abbrev  0x0000c036      0x25d cpu/arm920t/wmt/libwmt.a(gmacif.o)
 .debug_abbrev  0x0000c293      0x23c cpu/arm920t/wmt/libwmt.a(dma.o)
 .debug_abbrev  0x0000c4cf      0x3b4 cpu/arm920t/wmt/libwmt.a(mmc.o)
 .debug_abbrev  0x0000c883      0x13a cpu/arm920t/wmt/libwmt.a(pcinet.o)
 .debug_abbrev  0x0000c9bd      0x1fc cpu/arm920t/wmt/libwmt.a(gmii.o)
 .debug_abbrev  0x0000cbb9      0x1cb cpu/arm920t/wmt/libwmt.a(gmib.o)
 .debug_abbrev  0x0000cd84      0x26d cpu/arm920t/wmt/libwmt.a(galloct.o)
 .debug_abbrev  0x0000cff1      0x2cc cpu/arm920t/wmt/libwmt.a(gmac.o)
 .debug_abbrev  0x0000d2bd      0x291 cpu/arm920t/wmt/libwmt.a(gadapter.o)
 .debug_abbrev  0x0000d54e      0x107 cpu/arm920t/wmt/libwmt.a(mem.o)
 .debug_abbrev  0x0000d655       0xcd cpu/arm920t/wmt/libwmt.a(vpci.o)
 .debug_abbrev  0x0000d722       0xf8 cpu/arm920t/wmt/libwmt.a(upcix.o)
 .debug_abbrev  0x0000d81a       0xcc cpu/arm920t/wmt/libwmt.a(gcard.o)
 .debug_abbrev  0x0000d8e6      0x256 cpu/arm920t/wmt/libwmt.a(gisr.o)
 .debug_abbrev  0x0000db3c       0xd9 cpu/arm920t/wmt/libwmt.a(tconvert.o)
 .debug_abbrev  0x0000dc15       0xc7 cpu/arm920t/wmt/libwmt.a(tcrc.o)
 .debug_abbrev  0x0000dcdc      0x292 lib_arm/libarm.a(armlinux.o)
 .debug_abbrev  0x0000df6e       0x4e lib_arm/libarm.a(cache.o)
 .debug_abbrev  0x0000dfbc      0x371 fs/fat/libfat.a(fat.o)
 .debug_abbrev  0x0000e32d      0x149 disk/libdisk.a(part.o)
 .debug_abbrev  0x0000e476      0x1fa disk/libdisk.a(part_dos.o)
 .debug_abbrev  0x0000e670      0x124 cpu/arm920t/wmt/libwmt.a(zde.o)

.debug_line     0x00000000    0x101ae
 *(.debug_line)
 .debug_line    0x00000000       0xcf cpu/arm920t/start.o
 .debug_line    0x000000cf       0x71 board/wmt/libwmt.a(lowlevel_init.o)
 .debug_line    0x00000140       0xcc cpu/arm920t/libarm920t.a(interrupts.o)
 .debug_line    0x0000020c       0xfc cpu/arm920t/wmt/libwmt.a(interrupts.o)
 .debug_line    0x00000308      0x20e lib_arm/libarm.a(board.o)
 .debug_line    0x00000516      0x4bc net/libnet.a(net.o)
 .debug_line    0x000009d2      0x255 net/libnet.a(tftp.o)
 .debug_line    0x00000c27      0x2ee net/libnet.a(bootp.o)
 .debug_line    0x00000f15      0x14a net/libnet.a(rarp.o)
 .debug_line    0x0000105f       0xbd net/libnet.a(eth.o)
 .debug_line    0x0000111c      0x388 net/libnet.a(nfs.o)
 .debug_line    0x000014a4      0x234 common/libcommon.a(main.o)
 .debug_line    0x000016d8      0x1ba common/libcommon.a(cmd_autoscript.o)
 .debug_line    0x00001892      0x144 common/libcommon.a(cmd_bdinfo.o)
 .debug_line    0x000019d6       0xd2 common/libcommon.a(cmd_boot.o)
 .debug_line    0x00001aa8      0x36c common/libcommon.a(cmd_bootm.o)
 .debug_line    0x00001e14       0xac common/libcommon.a(cmd_console.o)
 .debug_line    0x00001ec0      0x18f common/libcommon.a(cmd_fat.o)
 .debug_line    0x0000204f      0x38c common/libcommon.a(cmd_flash.o)
 .debug_line    0x000023db      0x300 common/libcommon.a(cmd_i2c.o)
 .debug_line    0x000026db      0x3f1 common/libcommon.a(cmd_ide.o)
 .debug_line    0x00002acc      0x12a common/libcommon.a(cmd_itest.o)
 .debug_line    0x00002bf6      0x35d common/libcommon.a(cmd_load.o)
 .debug_line    0x00002f53      0x332 common/libcommon.a(cmd_mem.o)
 .debug_line    0x00003285      0x220 common/libcommon.a(cmd_mii.o)
 .debug_line    0x000034a5       0xcd common/libcommon.a(cmd_misc.o)
 .debug_line    0x00003572      0x147 common/libcommon.a(cmd_mmc.o)
 .debug_line    0x000036b9      0x10b common/libcommon.a(cmd_dma.o)
 .debug_line    0x000037c4     0x1078 common/libcommon.a(cmd_nand.o)
 .debug_line    0x0000483c      0x15c common/libcommon.a(cmd_net.o)
 .debug_line    0x00004998      0x3c4 common/libcommon.a(cmd_nvedit.o)
 .debug_line    0x00004d5c      0x3ee common/libcommon.a(cmd_usb.o)
 .debug_line    0x0000514a      0x2f1 common/libcommon.a(command.o)
 .debug_line    0x0000543b      0x29d common/libcommon.a(console.o)
 .debug_line    0x000056d8       0xb0 common/libcommon.a(devices.o)
 .debug_line    0x00005788      0x4cc common/libcommon.a(dlmalloc.o)
 .debug_line    0x00005c54      0x18f common/libcommon.a(env_common.o)
 .debug_line    0x00005de3      0x1be common/libcommon.a(env_flash.o)
 .debug_line    0x00005fa1      0x11d common/libcommon.a(exports.o)
 .debug_line    0x000060be      0x152 common/libcommon.a(wmt_cmd_display.o)
 .debug_line    0x00006210      0x33a common/libcommon.a(minivgui.o)
 .debug_line    0x0000654a      0x25b common/libcommon.a(uboot-vpp.o)
 .debug_line    0x000067a5      0x116 common/libcommon.a(cmd_mbit.o)
 .debug_line    0x000068bb      0x199 common/libcommon.a(cmd_textout.o)
 .debug_line    0x00006a54      0x118 common/libcommon.a(env_parse.o)
 .debug_line    0x00006b6c      0x18d common/libcommon.a(flash.o)
 .debug_line    0x00006cf9      0x68e common/libcommon.a(hush.o)
 .debug_line    0x00007387      0x130 common/libcommon.a(lists.o)
 .debug_line    0x000074b7      0x191 common/libcommon.a(miiphyutil.o)
 .debug_line    0x00007648      0x105 common/libcommon.a(s_record.o)
 .debug_line    0x0000774d      0x49c common/libcommon.a(usb.o)
 .debug_line    0x00007be9      0x4ba common/libcommon.a(usb_storage.o)
 .debug_line    0x000080a3      0x150 common/libcommon.a(pwm.o)
 .debug_line    0x000081f3       0xd1 common/libcommon.a(wmt-ost.o)
 .debug_line    0x000082c4      0x3ef common/libcommon.a(govrh.o)
 .debug_line    0x000086b3      0x100 common/libcommon.a(lcd.o)
 .debug_line    0x000087b3       0x91 common/libcommon.a(lvds.o)
 .debug_line    0x00008844      0x4c9 common/libcommon.a(vpp.o)
 .debug_line    0x00008d0d      0x364 common/libcommon.a(hdmi.o)
 .debug_line    0x00009071      0x55d common/libcommon.a(vout-wmt.o)
 .debug_line    0x000095ce       0xaa common/libcommon.a(lcd-oem.o)
 .debug_line    0x00009678       0xb3 common/libcommon.a(lcd-AUO-A080SN01.o)
 .debug_line    0x0000972b       0xb8 common/libcommon.a(lcd-INNOLUX-AT070TN83.o)
 .debug_line    0x000097e3       0xc0 common/libcommon.a(lcd-CHILIN-LW700at9003.o)
 .debug_line    0x000098a3       0xc0 common/libcommon.a(lcd-EKING-EK08009-70135.o)
 .debug_line    0x00009963       0xc0 common/libcommon.a(lcd-HANNSTAR-HSD101PFW2.o)
 .debug_line    0x00009a23       0xf7 common/libcommon.a(vt1632.o)
 .debug_line    0x00009b1a      0x2ee common/libcommon.a(sil902x.o)
 .debug_line    0x00009e08      0x18f common/libcommon.a(vpp-osif.o)
 .debug_line    0x00009f97      0x16d common/libcommon.a(vout.o)
 .debug_line    0x0000a104      0x176 common/libcommon.a(sw_i2c.o)
 .debug_line    0x0000a27a      0x34c common/libcommon.a(parse-edid.o)
 .debug_line    0x0000a5c6       0xe0 lib_generic/libgeneric.a(crc32.o)
 .debug_line    0x0000a6a6       0x69 lib_generic/libgeneric.a(ctype.o)
 .debug_line    0x0000a70f       0xa2 lib_generic/libgeneric.a(display_options.o)
 .debug_line    0x0000a7b1      0x2b5 lib_generic/libgeneric.a(string.o)
 .debug_line    0x0000aa66      0x2f7 lib_generic/libgeneric.a(vsprintf.o)
 .debug_line    0x0000ad5d      0x76f lib_generic/libgeneric.a(zlib.o)
 .debug_line    0x0000b4cc       0xd3 board/wmt/libwmt.a(wmt.o)
 .debug_line    0x0000b59f      0x1c8 board/wmt/libwmt.a(flash.o)
 .debug_line    0x0000b767       0x4f board/wmt/libwmt.a(main.o)
 .debug_line    0x0000b7b6      0x267 board/wmt/libwmt.a(spi_flash.o)
 .debug_line    0x0000ba1d       0xd5 board/wmt/libwmt.a(nand_flash.o)
 .debug_line    0x0000baf2      0x312 board/wmt/libwmt.a(nor_flash_8bit.o)
 .debug_line    0x0000be04      0x41f board/wmt/libwmt.a(nor_flash_16bit.o)
 .debug_line    0x0000c223      0x298 board/wmt/libwmt.a(wmt_clk.o)
 .debug_line    0x0000c4bb      0x472 board/wmt/libwmt.a(ehci-hcd.o)
 .debug_line    0x0000c92d      0x431 board/wmt/libwmt.a(usb_uhci.o)
 .debug_line    0x0000cd5e      0x223 board/wmt/libwmt.a(wmt_i2c.o)
 .debug_line    0x0000cf81      0x21e board/wmt/libwmt.a(wmt_i2c_1.o)
 .debug_line    0x0000d19f       0xe6 cpu/arm920t/libarm920t.a(cpu.o)
 .debug_line    0x0000d285      0x13c cpu/arm920t/wmt/libwmt.a(serial.o)
 .debug_line    0x0000d3c1       0xcb cpu/arm920t/wmt/libwmt.a(ether.o)
 .debug_line    0x0000d48c      0x26b cpu/arm920t/wmt/libwmt.a(gmacif.o)
 .debug_line    0x0000d6f7      0x322 cpu/arm920t/wmt/libwmt.a(dma.o)
 .debug_line    0x0000da19      0x792 cpu/arm920t/wmt/libwmt.a(mmc.o)
 .debug_line    0x0000e1ab       0xf1 cpu/arm920t/wmt/libwmt.a(pcinet.o)
 .debug_line    0x0000e29c      0x18f cpu/arm920t/wmt/libwmt.a(gmii.o)
 .debug_line    0x0000e42b      0x1d1 cpu/arm920t/wmt/libwmt.a(gmib.o)
 .debug_line    0x0000e5fc      0x2cb cpu/arm920t/wmt/libwmt.a(galloct.o)
 .debug_line    0x0000e8c7      0x3ea cpu/arm920t/wmt/libwmt.a(gmac.o)
 .debug_line    0x0000ecb1      0x21c cpu/arm920t/wmt/libwmt.a(gadapter.o)
 .debug_line    0x0000eecd      0x100 cpu/arm920t/wmt/libwmt.a(mem.o)
 .debug_line    0x0000efcd       0x7b cpu/arm920t/wmt/libwmt.a(vpci.o)
 .debug_line    0x0000f048       0xd4 cpu/arm920t/wmt/libwmt.a(upcix.o)
 .debug_line    0x0000f11c       0x8f cpu/arm920t/wmt/libwmt.a(gcard.o)
 .debug_line    0x0000f1ab      0x280 cpu/arm920t/wmt/libwmt.a(gisr.o)
 .debug_line    0x0000f42b      0x13c cpu/arm920t/wmt/libwmt.a(tconvert.o)
 .debug_line    0x0000f567       0x51 cpu/arm920t/wmt/libwmt.a(tcrc.o)
 .debug_line    0x0000f5b8      0x239 lib_arm/libarm.a(armlinux.o)
 .debug_line    0x0000f7f1       0x38 lib_arm/libarm.a(cache.o)
 .debug_line    0x0000f829      0x659 fs/fat/libfat.a(fat.o)
 .debug_line    0x0000fe82      0x130 disk/libdisk.a(part.o)
 .debug_line    0x0000ffb2      0x1ae disk/libdisk.a(part_dos.o)
 .debug_line    0x00010160       0x4e cpu/arm920t/wmt/libwmt.a(zde.o)

.debug_frame    0x00000000     0x871c
 *(.debug_frame)
 .debug_frame   0x00000000      0x110 cpu/arm920t/libarm920t.a(interrupts.o)
 .debug_frame   0x00000110      0x10c cpu/arm920t/wmt/libwmt.a(interrupts.o)
 .debug_frame   0x0000021c       0xb8 lib_arm/libarm.a(board.o)
 .debug_frame   0x000002d4      0x340 net/libnet.a(net.o)
 .debug_frame   0x00000614       0x98 net/libnet.a(tftp.o)
 .debug_frame   0x000006ac      0x178 net/libnet.a(bootp.o)
 .debug_frame   0x00000824       0x60 net/libnet.a(rarp.o)
 .debug_frame   0x00000884       0x28 net/libnet.a(eth.o)
 .debug_frame   0x000008ac      0x284 net/libnet.a(nfs.o)
 .debug_frame   0x00000b30       0xbc common/libcommon.a(main.o)
 .debug_frame   0x00000bec       0x58 common/libcommon.a(cmd_autoscript.o)
 .debug_frame   0x00000c44       0x3c common/libcommon.a(cmd_bdinfo.o)
 .debug_frame   0x00000c80       0x2c common/libcommon.a(cmd_boot.o)
 .debug_frame   0x00000cac      0x12c common/libcommon.a(cmd_bootm.o)
 .debug_frame   0x00000dd8       0x30 common/libcommon.a(cmd_console.o)
 .debug_frame   0x00000e08       0xc0 common/libcommon.a(cmd_fat.o)
 .debug_frame   0x00000ec8      0x124 common/libcommon.a(cmd_flash.o)
 .debug_frame   0x00000fec      0x164 common/libcommon.a(cmd_i2c.o)
 .debug_frame   0x00001150      0x15c common/libcommon.a(cmd_ide.o)
 .debug_frame   0x000012ac       0x78 common/libcommon.a(cmd_itest.o)
 .debug_frame   0x00001324      0x198 common/libcommon.a(cmd_load.o)
 .debug_frame   0x000014bc      0x19c common/libcommon.a(cmd_mem.o)
 .debug_frame   0x00001658       0x80 common/libcommon.a(cmd_mii.o)
 .debug_frame   0x000016d8       0x30 common/libcommon.a(cmd_misc.o)
 .debug_frame   0x00001708       0x98 common/libcommon.a(cmd_mmc.o)
 .debug_frame   0x000017a0       0x4c common/libcommon.a(cmd_dma.o)
 .debug_frame   0x000017ec      0x6b0 common/libcommon.a(cmd_nand.o)
 .debug_frame   0x00001e9c       0xa0 common/libcommon.a(cmd_net.o)
 .debug_frame   0x00001f3c      0x114 common/libcommon.a(cmd_nvedit.o)
 .debug_frame   0x00002050      0x188 common/libcommon.a(cmd_usb.o)
 .debug_frame   0x000021d8      0x13c common/libcommon.a(command.o)
 .debug_frame   0x00002314      0x22c common/libcommon.a(console.o)
 .debug_frame   0x00002540       0x58 common/libcommon.a(devices.o)
 .debug_frame   0x00002598      0x130 common/libcommon.a(dlmalloc.o)
 .debug_frame   0x000026c8       0xa0 common/libcommon.a(env_common.o)
 .debug_frame   0x00002768       0x84 common/libcommon.a(env_flash.o)
 .debug_frame   0x000027ec       0x48 common/libcommon.a(exports.o)
 .debug_frame   0x00002834       0x78 common/libcommon.a(wmt_cmd_display.o)
 .debug_frame   0x000028ac      0x11c common/libcommon.a(minivgui.o)
 .debug_frame   0x000029c8       0x94 common/libcommon.a(uboot-vpp.o)
 .debug_frame   0x00002a5c       0x4c common/libcommon.a(cmd_mbit.o)
 .debug_frame   0x00002aa8       0x4c common/libcommon.a(cmd_textout.o)
 .debug_frame   0x00002af4       0x50 common/libcommon.a(env_parse.o)
 .debug_frame   0x00002b44       0x80 common/libcommon.a(flash.o)
 .debug_frame   0x00002bc4      0x334 common/libcommon.a(hush.o)
 .debug_frame   0x00002ef8      0x138 common/libcommon.a(lists.o)
 .debug_frame   0x00003030      0x150 common/libcommon.a(miiphyutil.o)
 .debug_frame   0x00003180       0x64 common/libcommon.a(s_record.o)
 .debug_frame   0x000031e4      0x4dc common/libcommon.a(usb.o)
 .debug_frame   0x000036c0      0x23c common/libcommon.a(usb_storage.o)
 .debug_frame   0x000038fc      0x108 common/libcommon.a(pwm.o)
 .debug_frame   0x00003a04       0x78 common/libcommon.a(wmt-ost.o)
 .debug_frame   0x00003a7c      0x4b8 common/libcommon.a(govrh.o)
 .debug_frame   0x00003f34       0xc4 common/libcommon.a(lcd.o)
 .debug_frame   0x00003ff8       0x8c common/libcommon.a(lvds.o)
 .debug_frame   0x00004084      0x44c common/libcommon.a(vpp.o)
 .debug_frame   0x000044d0      0x3e0 common/libcommon.a(hdmi.o)
 .debug_frame   0x000048b0      0x60c common/libcommon.a(vout-wmt.o)
 .debug_frame   0x00004ebc       0x40 common/libcommon.a(lcd-oem.o)
 .debug_frame   0x00004efc       0x40 common/libcommon.a(lcd-AUO-A080SN01.o)
 .debug_frame   0x00004f3c       0x50 common/libcommon.a(lcd-INNOLUX-AT070TN83.o)
 .debug_frame   0x00004f8c       0x50 common/libcommon.a(lcd-CHILIN-LW700at9003.o)
 .debug_frame   0x00004fdc       0x50 common/libcommon.a(lcd-EKING-EK08009-70135.o)
 .debug_frame   0x0000502c       0x50 common/libcommon.a(lcd-HANNSTAR-HSD101PFW2.o)
 .debug_frame   0x0000507c       0xbc common/libcommon.a(vt1632.o)
 .debug_frame   0x00005138      0x32c common/libcommon.a(sil902x.o)
 .debug_frame   0x00005464      0x1c4 common/libcommon.a(vpp-osif.o)
 .debug_frame   0x00005628      0x168 common/libcommon.a(vout.o)
 .debug_frame   0x00005790      0x1c8 common/libcommon.a(sw_i2c.o)
 .debug_frame   0x00005958      0x11c common/libcommon.a(parse-edid.o)
 .debug_frame   0x00005a74       0x2c lib_generic/libgeneric.a(crc32.o)
 .debug_frame   0x00005aa0       0x48 lib_generic/libgeneric.a(display_options.o)
 .debug_frame   0x00005ae8      0x22c lib_generic/libgeneric.a(string.o)
 .debug_frame   0x00005d14      0x12c lib_generic/libgeneric.a(vsprintf.o)
 .debug_frame   0x00005e40      0x214 lib_generic/libgeneric.a(zlib.o)
 .debug_frame   0x00006054       0x58 board/wmt/libwmt.a(wmt.o)
 .debug_frame   0x000060ac       0x98 board/wmt/libwmt.a(flash.o)
 .debug_frame   0x00006144       0x20 board/wmt/libwmt.a(main.o)
 .debug_frame   0x00006164       0xa8 board/wmt/libwmt.a(spi_flash.o)
 .debug_frame   0x0000620c       0x50 board/wmt/libwmt.a(nand_flash.o)
 .debug_frame   0x0000625c       0xb4 board/wmt/libwmt.a(nor_flash_8bit.o)
 .debug_frame   0x00006310       0xcc board/wmt/libwmt.a(nor_flash_16bit.o)
 .debug_frame   0x000063dc       0x98 board/wmt/libwmt.a(wmt_clk.o)
 .debug_frame   0x00006474      0x258 board/wmt/libwmt.a(ehci-hcd.o)
 .debug_frame   0x000066cc      0x238 board/wmt/libwmt.a(usb_uhci.o)
 .debug_frame   0x00006904       0xfc board/wmt/libwmt.a(wmt_i2c.o)
 .debug_frame   0x00006a00       0xfc board/wmt/libwmt.a(wmt_i2c_1.o)
 .debug_frame   0x00006afc       0xcc cpu/arm920t/libarm920t.a(cpu.o)
 .debug_frame   0x00006bc8       0x80 cpu/arm920t/wmt/libwmt.a(serial.o)
 .debug_frame   0x00006c48       0x90 cpu/arm920t/wmt/libwmt.a(ether.o)
 .debug_frame   0x00006cd8       0xa4 cpu/arm920t/wmt/libwmt.a(gmacif.o)
 .debug_frame   0x00006d7c      0x224 cpu/arm920t/wmt/libwmt.a(dma.o)
 .debug_frame   0x00006fa0      0x350 cpu/arm920t/wmt/libwmt.a(mmc.o)
 .debug_frame   0x000072f0      0x124 cpu/arm920t/wmt/libwmt.a(pcinet.o)
 .debug_frame   0x00007414      0x1ec cpu/arm920t/wmt/libwmt.a(gmii.o)
 .debug_frame   0x00007600      0x144 cpu/arm920t/wmt/libwmt.a(gmib.o)
 .debug_frame   0x00007744      0x160 cpu/arm920t/wmt/libwmt.a(galloct.o)
 .debug_frame   0x000078a4      0x4b4 cpu/arm920t/wmt/libwmt.a(gmac.o)
 .debug_frame   0x00007d58       0xcc cpu/arm920t/wmt/libwmt.a(gadapter.o)
 .debug_frame   0x00007e24       0x64 cpu/arm920t/wmt/libwmt.a(mem.o)
 .debug_frame   0x00007e88       0xc8 cpu/arm920t/wmt/libwmt.a(vpci.o)
 .debug_frame   0x00007f50       0xb8 cpu/arm920t/wmt/libwmt.a(upcix.o)
 .debug_frame   0x00008008       0x6c cpu/arm920t/wmt/libwmt.a(gcard.o)
 .debug_frame   0x00008074       0x98 cpu/arm920t/wmt/libwmt.a(gisr.o)
 .debug_frame   0x0000810c       0xa8 cpu/arm920t/wmt/libwmt.a(tconvert.o)
 .debug_frame   0x000081b4       0x48 cpu/arm920t/wmt/libwmt.a(tcrc.o)
 .debug_frame   0x000081fc       0x98 lib_arm/libarm.a(armlinux.o)
 .debug_frame   0x00008294       0x20 lib_arm/libarm.a(cache.o)
 .debug_frame   0x000082b4      0x2a8 fs/fat/libfat.a(fat.o)
 .debug_frame   0x0000855c       0x80 disk/libdisk.a(part.o)
 .debug_frame   0x000085dc       0xd0 disk/libdisk.a(part_dos.o)
 .debug_frame   0x000086ac       0x30 cpu/arm920t/wmt/libwmt.a(zde.o)
 .debug_frame   0x000086dc       0x20 /root/Project/sdc1/AndroidPC_2.0/tools/arm-toolchain/bin/../lib/gcc/arm-none-eabi/4.5.2/libgcc.a(_udivsi3.o)
 .debug_frame   0x000086fc       0x20 /root/Project/sdc1/AndroidPC_2.0/tools/arm-toolchain/bin/../lib/gcc/arm-none-eabi/4.5.2/libgcc.a(_divsi3.o)

.debug_str      0x00000000    0x103fb
 *(.debug_str)
 .debug_str     0x00000000      0x15c cpu/arm920t/libarm920t.a(interrupts.o)
                                0x1a0 (size before relaxing)
 .debug_str     0x0000015c      0xa30 cpu/arm920t/wmt/libwmt.a(interrupts.o)
                                0xb18 (size before relaxing)
 .debug_str     0x00000b8c      0x222 lib_arm/libarm.a(board.o)
                                0x2e9 (size before relaxing)
 .debug_str     0x00000dae      0x5df net/libnet.a(net.o)
                                0x7d5 (size before relaxing)
 .debug_str     0x0000138d       0xec net/libnet.a(tftp.o)
                                0x27c (size before relaxing)
 .debug_str     0x00001479      0x24d net/libnet.a(bootp.o)
                                0x495 (size before relaxing)
 .debug_str     0x000016c6       0x4c net/libnet.a(rarp.o)
                                0x19e (size before relaxing)
 .debug_str     0x00001712       0x15 net/libnet.a(eth.o)
                                0x152 (size before relaxing)
 .debug_str     0x00001727      0x25d net/libnet.a(nfs.o)
                                0x461 (size before relaxing)
 .debug_str     0x00001984      0x15f common/libcommon.a(main.o)
                                0x249 (size before relaxing)
 .debug_str     0x00001ae3       0xc2 common/libcommon.a(cmd_autoscript.o)
                                0x229 (size before relaxing)
 .debug_str     0x00001ba5       0x35 common/libcommon.a(cmd_bdinfo.o)
                                0x222 (size before relaxing)
 .debug_str     0x00001bda       0x34 common/libcommon.a(cmd_boot.o)
                                0x15e (size before relaxing)
 .debug_str     0x00001c0e      0x220 common/libcommon.a(cmd_bootm.o)
                                0x526 (size before relaxing)
 .debug_str     0x00001e2e       0xbc common/libcommon.a(cmd_console.o)
                                0x1fd (size before relaxing)
 .debug_str     0x00001eea      0x13a common/libcommon.a(cmd_fat.o)
                                0x298 (size before relaxing)
 .debug_str     0x00002024      0x138 common/libcommon.a(cmd_flash.o)
                                0x2db (size before relaxing)
 .debug_str     0x0000215c      0x1b6 common/libcommon.a(cmd_i2c.o)
                                0x331 (size before relaxing)
 .debug_str     0x00002312      0x418 common/libcommon.a(cmd_ide.o)
                                0x6f4 (size before relaxing)
 .debug_str     0x0000272a       0x90 common/libcommon.a(cmd_itest.o)
                                0x1b9 (size before relaxing)
 .debug_str     0x000027ba      0x38b common/libcommon.a(cmd_load.o)
                                0x5eb (size before relaxing)
 .debug_str     0x00002b45      0x1ca common/libcommon.a(cmd_mem.o)
                                0x3a4 (size before relaxing)
 .debug_str     0x00002d0f      0x1ac common/libcommon.a(cmd_mii.o)
                                0x348 (size before relaxing)
 .debug_str     0x00002ebb       0x27 common/libcommon.a(cmd_misc.o)
                                0x152 (size before relaxing)
 .debug_str     0x00002ee2       0xc7 common/libcommon.a(cmd_mmc.o)
                                0x1fe (size before relaxing)
 .debug_str     0x00002fa9      0x298 common/libcommon.a(cmd_dma.o)
                                0x3f8 (size before relaxing)
 .debug_str     0x00003241      0xb91 common/libcommon.a(cmd_nand.o)
                                0xed9 (size before relaxing)
 .debug_str     0x00003dd2       0xd2 common/libcommon.a(cmd_net.o)
                                0x2d2 (size before relaxing)
 .debug_str     0x00003ea4       0xe3 common/libcommon.a(cmd_nvedit.o)
                                0x31c (size before relaxing)
 .debug_str     0x00003f87      0x467 common/libcommon.a(cmd_usb.o)
                                0x77a (size before relaxing)
 .debug_str     0x000043ee      0x1dc common/libcommon.a(command.o)
                                0x33f (size before relaxing)
 .debug_str     0x000045ca       0xed common/libcommon.a(console.o)
                                0x446 (size before relaxing)
 .debug_str     0x000046b7       0x3e common/libcommon.a(devices.o)
                                0x1d3 (size before relaxing)
 .debug_str     0x000046f5      0x29d common/libcommon.a(dlmalloc.o)
                                0x4a6 (size before relaxing)
 .debug_str     0x00004992       0x9d common/libcommon.a(env_common.o)
                                0x262 (size before relaxing)
 .debug_str     0x00004a2f       0x93 common/libcommon.a(env_flash.o)
                                0x2a1 (size before relaxing)
 .debug_str     0x00004ac2       0x19 common/libcommon.a(exports.o)
                                0x273 (size before relaxing)
 .debug_str     0x00004adb     0x11c5 common/libcommon.a(wmt_cmd_display.o)
                               0x13d7 (size before relaxing)
 .debug_str     0x00005ca0      0x28c common/libcommon.a(minivgui.o)
                               0x13d1 (size before relaxing)
 .debug_str     0x00005f2c      0x47d common/libcommon.a(uboot-vpp.o)
                               0x17a5 (size before relaxing)
 .debug_str     0x000063a9       0x43 common/libcommon.a(cmd_mbit.o)
                               0x1127 (size before relaxing)
 .debug_str     0x000063ec       0x6f common/libcommon.a(cmd_textout.o)
                               0x12a1 (size before relaxing)
 .debug_str     0x0000645b       0x3e common/libcommon.a(env_parse.o)
                                0xe3f (size before relaxing)
 .debug_str     0x00006499       0x55 common/libcommon.a(flash.o)
                                0x19c (size before relaxing)
 .debug_str     0x000064ee      0x4b9 common/libcommon.a(hush.o)
                                0x790 (size before relaxing)
 .debug_str     0x000069a7      0x1d5 common/libcommon.a(lists.o)
                                0x318 (size before relaxing)
 .debug_str     0x00006b7c      0x10e common/libcommon.a(miiphyutil.o)
                                0x241 (size before relaxing)
 .debug_str     0x00006c8a       0x3a common/libcommon.a(s_record.o)
                                0x11a (size before relaxing)
 .debug_str     0x00006cc4      0x4f4 common/libcommon.a(usb.o)
                                0x9f2 (size before relaxing)
 .debug_str     0x000071b8      0x41c common/libcommon.a(usb_storage.o)
                                0x9b2 (size before relaxing)
 .debug_str     0x000075d4       0xe2 common/libcommon.a(pwm.o)
                               0x1190 (size before relaxing)
 .debug_str     0x000076b6       0xa2 common/libcommon.a(wmt-ost.o)
                               0x1122 (size before relaxing)
 .debug_str     0x00007758      0x95c common/libcommon.a(govrh.o)
                               0x1a4a (size before relaxing)
 .debug_str     0x000080b4      0x233 common/libcommon.a(lcd.o)
                               0x1481 (size before relaxing)
 .debug_str     0x000082e7       0x71 common/libcommon.a(lvds.o)
                                0xdfc (size before relaxing)
 .debug_str     0x00008358      0x595 common/libcommon.a(vpp.o)
                               0x1c45 (size before relaxing)
 .debug_str     0x000088ed      0x57b common/libcommon.a(hdmi.o)
                               0x16c8 (size before relaxing)
 .debug_str     0x00008e68      0x6a0 common/libcommon.a(vout-wmt.o)
                               0x1c44 (size before relaxing)
 .debug_str     0x00009508       0x59 common/libcommon.a(lcd-oem.o)
                               0x11bc (size before relaxing)
 .debug_str     0x00009561       0x76 common/libcommon.a(lcd-AUO-A080SN01.o)
                               0x11d9 (size before relaxing)
 .debug_str     0x000095d7       0x98 common/libcommon.a(lcd-INNOLUX-AT070TN83.o)
                               0x11fb (size before relaxing)
 .debug_str     0x0000966f       0xa3 common/libcommon.a(lcd-CHILIN-LW700at9003.o)
                               0x1206 (size before relaxing)
 .debug_str     0x00009712       0x90 common/libcommon.a(lcd-EKING-EK08009-70135.o)
                               0x11f3 (size before relaxing)
 .debug_str     0x000097a2       0x9f common/libcommon.a(lcd-HANNSTAR-HSD101PFW2.o)
                               0x1202 (size before relaxing)
 .debug_str     0x00009841       0xc0 common/libcommon.a(vt1632.o)
                               0x1302 (size before relaxing)
 .debug_str     0x00009901      0x52b common/libcommon.a(sil902x.o)
                               0x17cb (size before relaxing)
 .debug_str     0x00009e2c      0x152 common/libcommon.a(vpp-osif.o)
                               0x1242 (size before relaxing)
 .debug_str     0x00009f7e      0x132 common/libcommon.a(vout.o)
                               0x1424 (size before relaxing)
 .debug_str     0x0000a0b0      0x169 common/libcommon.a(sw_i2c.o)
                               0x1296 (size before relaxing)
 .debug_str     0x0000a219      0x253 common/libcommon.a(parse-edid.o)
                               0x137e (size before relaxing)
 .debug_str     0x0000a46c       0x4d lib_generic/libgeneric.a(crc32.o)
                                0x104 (size before relaxing)
 .debug_str     0x0000a4b9        0x8 lib_generic/libgeneric.a(ctype.o)
                                 0x6a (size before relaxing)
 .debug_str     0x0000a4c1       0x2d lib_generic/libgeneric.a(display_options.o)
                                0x110 (size before relaxing)
 .debug_str     0x0000a4ee       0xe3 lib_generic/libgeneric.a(string.o)
                                0x1eb (size before relaxing)
 .debug_str     0x0000a5d1       0x82 lib_generic/libgeneric.a(vsprintf.o)
                                0x1c5 (size before relaxing)
 .debug_str     0x0000a653      0x3a6 lib_generic/libgeneric.a(zlib.o)
                                0x5b8 (size before relaxing)
 .debug_str     0x0000a9f9       0x6a board/wmt/libwmt.a(wmt.o)
                                0x1d3 (size before relaxing)
 .debug_str     0x0000aa63      0x12a board/wmt/libwmt.a(flash.o)
                                0x2d1 (size before relaxing)
 .debug_str     0x0000ab8d        0x9 board/wmt/libwmt.a(main.o)
                                 0x9b (size before relaxing)
 .debug_str     0x0000ab96      0x26e board/wmt/libwmt.a(spi_flash.o)
                                0x3c5 (size before relaxing)
 .debug_str     0x0000ae04       0x61 board/wmt/libwmt.a(nand_flash.o)
                                0x190 (size before relaxing)
 .debug_str     0x0000ae65      0x14a board/wmt/libwmt.a(nor_flash_8bit.o)
                                0x2e1 (size before relaxing)
 .debug_str     0x0000afaf       0x7e board/wmt/libwmt.a(nor_flash_16bit.o)
                                0x303 (size before relaxing)
 .debug_str     0x0000b02d      0x123 board/wmt/libwmt.a(wmt_clk.o)
                                0x4bf (size before relaxing)
 .debug_str     0x0000b150      0x85b board/wmt/libwmt.a(ehci-hcd.o)
                                0xeac (size before relaxing)
 .debug_str     0x0000b9ab      0x2a6 board/wmt/libwmt.a(usb_uhci.o)
                                0x78c (size before relaxing)
 .debug_str     0x0000bc51      0x1bd board/wmt/libwmt.a(wmt_i2c.o)
                                0x5c0 (size before relaxing)
 .debug_str     0x0000be0e       0x57 board/wmt/libwmt.a(wmt_i2c_1.o)
                                0x5c9 (size before relaxing)
 .debug_str     0x0000be65       0x71 cpu/arm920t/libarm920t.a(cpu.o)
                                0x1a4 (size before relaxing)
 .debug_str     0x0000bed6      0x2d3 cpu/arm920t/wmt/libwmt.a(serial.o)
                                0x46e (size before relaxing)
 .debug_str     0x0000c1a9       0x61 cpu/arm920t/wmt/libwmt.a(ether.o)
                                0x1cb (size before relaxing)
 .debug_str     0x0000c20a     0x145a cpu/arm920t/wmt/libwmt.a(gmacif.o)
                               0x1674 (size before relaxing)
 .debug_str     0x0000d664      0x405 cpu/arm920t/wmt/libwmt.a(dma.o)
                                0x793 (size before relaxing)
 .debug_str     0x0000da69      0x76e cpu/arm920t/wmt/libwmt.a(mmc.o)
                                0xe0f (size before relaxing)
 .debug_str     0x0000e1d7      0x178 cpu/arm920t/wmt/libwmt.a(pcinet.o)
                                0x2bb (size before relaxing)
 .debug_str     0x0000e34f      0x32b cpu/arm920t/wmt/libwmt.a(gmii.o)
                                0x495 (size before relaxing)
 .debug_str     0x0000e67a      0x1d8 cpu/arm920t/wmt/libwmt.a(gmib.o)
                                0xce9 (size before relaxing)
 .debug_str     0x0000e852      0x18e cpu/arm920t/wmt/libwmt.a(galloct.o)
                               0x14c5 (size before relaxing)
 .debug_str     0x0000e9e0      0xa52 cpu/arm920t/wmt/libwmt.a(gmac.o)
                               0x1df0 (size before relaxing)
 .debug_str     0x0000f432       0xe5 cpu/arm920t/wmt/libwmt.a(gadapter.o)
                               0x14fb (size before relaxing)
 .debug_str     0x0000f517       0x4d cpu/arm920t/wmt/libwmt.a(mem.o)
                                0x216 (size before relaxing)
 .debug_str     0x0000f564       0x90 cpu/arm920t/wmt/libwmt.a(vpci.o)
                                0x1f3 (size before relaxing)
 .debug_str     0x0000f5f4       0xe8 cpu/arm920t/wmt/libwmt.a(upcix.o)
                                0x285 (size before relaxing)
 .debug_str     0x0000f6dc       0x5d cpu/arm920t/wmt/libwmt.a(gcard.o)
                                0x18f (size before relaxing)
 .debug_str     0x0000f739      0x18f cpu/arm920t/wmt/libwmt.a(gisr.o)
                               0x154a (size before relaxing)
 .debug_str     0x0000f8c8       0xf6 cpu/arm920t/wmt/libwmt.a(tconvert.o)
                                0x1dc (size before relaxing)
 .debug_str     0x0000f9be       0x59 cpu/arm920t/wmt/libwmt.a(tcrc.o)
                                0x142 (size before relaxing)
 .debug_str     0x0000fa17      0x22e lib_arm/libarm.a(armlinux.o)
                                0x569 (size before relaxing)
 .debug_str     0x0000fc45       0x22 lib_arm/libarm.a(cache.o)
                                 0xe7 (size before relaxing)
 .debug_str     0x0000fc67      0x4f4 fs/fat/libfat.a(fat.o)
                                0x746 (size before relaxing)
 .debug_str     0x0001015b       0x9d disk/libdisk.a(part.o)
                                0x207 (size before relaxing)
 .debug_str     0x000101f8      0x148 disk/libdisk.a(part_dos.o)
                                0x2f2 (size before relaxing)
 .debug_str     0x00010340       0xbb cpu/arm920t/wmt/libwmt.a(zde.o)
                                0x1a7 (size before relaxing)

.debug_loc      0x00000000    0x35876
 *(.debug_loc)
 .debug_loc     0x00000000      0x21d cpu/arm920t/libarm920t.a(interrupts.o)
 .debug_loc     0x0000021d      0x1f6 cpu/arm920t/wmt/libwmt.a(interrupts.o)
 .debug_loc     0x00000413      0x1da lib_arm/libarm.a(board.o)
 .debug_loc     0x000005ed      0xd71 net/libnet.a(net.o)
 .debug_loc     0x0000135e      0x394 net/libnet.a(tftp.o)
 .debug_loc     0x000016f2      0x732 net/libnet.a(bootp.o)
 .debug_loc     0x00001e24      0x12d net/libnet.a(rarp.o)
 .debug_loc     0x00001f51       0x3e net/libnet.a(eth.o)
 .debug_loc     0x00001f8f      0xb05 net/libnet.a(nfs.o)
 .debug_loc     0x00002a94      0x97a common/libcommon.a(main.o)
 .debug_loc     0x0000340e      0x1fa common/libcommon.a(cmd_autoscript.o)
 .debug_loc     0x00003608       0xea common/libcommon.a(cmd_bdinfo.o)
 .debug_loc     0x000036f2      0x139 common/libcommon.a(cmd_boot.o)
 .debug_loc     0x0000382b      0xa5e common/libcommon.a(cmd_bootm.o)
 .debug_loc     0x00004289       0xbc common/libcommon.a(cmd_console.o)
 .debug_loc     0x00004345      0x751 common/libcommon.a(cmd_fat.o)
 .debug_loc     0x00004a96      0xe47 common/libcommon.a(cmd_flash.o)
 .debug_loc     0x000058dd      0xbfe common/libcommon.a(cmd_i2c.o)
 .debug_loc     0x000064db      0xb75 common/libcommon.a(cmd_ide.o)
 .debug_loc     0x00007050      0x535 common/libcommon.a(cmd_itest.o)
 .debug_loc     0x00007585      0xb1b common/libcommon.a(cmd_load.o)
 .debug_loc     0x000080a0     0x1344 common/libcommon.a(cmd_mem.o)
 .debug_loc     0x000093e4      0x90f common/libcommon.a(cmd_mii.o)
 .debug_loc     0x00009cf3       0xab common/libcommon.a(cmd_misc.o)
 .debug_loc     0x00009d9e      0x585 common/libcommon.a(cmd_mmc.o)
 .debug_loc     0x0000a323      0x205 common/libcommon.a(cmd_dma.o)
 .debug_loc     0x0000a528     0x464a common/libcommon.a(cmd_nand.o)
 .debug_loc     0x0000eb72      0x298 common/libcommon.a(cmd_net.o)
 .debug_loc     0x0000ee0a      0x9f9 common/libcommon.a(cmd_nvedit.o)
 .debug_loc     0x0000f803      0xb65 common/libcommon.a(cmd_usb.o)
 .debug_loc     0x00010368     0x10e4 common/libcommon.a(command.o)
 .debug_loc     0x0001144c      0x553 common/libcommon.a(console.o)
 .debug_loc     0x0001199f       0x8b common/libcommon.a(devices.o)
 .debug_loc     0x00011a2a     0x14d5 common/libcommon.a(dlmalloc.o)
 .debug_loc     0x00012eff      0x284 common/libcommon.a(env_common.o)
 .debug_loc     0x00013183      0x23d common/libcommon.a(env_flash.o)
 .debug_loc     0x000133c0       0x28 common/libcommon.a(exports.o)
 .debug_loc     0x000133e8      0x16f common/libcommon.a(wmt_cmd_display.o)
 .debug_loc     0x00013557      0xa24 common/libcommon.a(minivgui.o)
 .debug_loc     0x00013f7b      0x393 common/libcommon.a(uboot-vpp.o)
 .debug_loc     0x0001430e      0x164 common/libcommon.a(cmd_mbit.o)
 .debug_loc     0x00014472      0x26b common/libcommon.a(cmd_textout.o)
 .debug_loc     0x000146dd      0x160 common/libcommon.a(env_parse.o)
 .debug_loc     0x0001483d      0x31e common/libcommon.a(flash.o)
 .debug_loc     0x00014b5b     0x1cb3 common/libcommon.a(hush.o)
 .debug_loc     0x0001680e      0x40e common/libcommon.a(lists.o)
 .debug_loc     0x00016c1c      0x6af common/libcommon.a(miiphyutil.o)
 .debug_loc     0x000172cb      0x368 common/libcommon.a(s_record.o)
 .debug_loc     0x00017633     0x14ca common/libcommon.a(usb.o)
 .debug_loc     0x00018afd      0xe96 common/libcommon.a(usb_storage.o)
 .debug_loc     0x00019993      0x3ee common/libcommon.a(pwm.o)
 .debug_loc     0x00019d81      0x174 common/libcommon.a(wmt-ost.o)
 .debug_loc     0x00019ef5      0xe00 common/libcommon.a(govrh.o)
 .debug_loc     0x0001acf5      0x1c6 common/libcommon.a(lcd.o)
 .debug_loc     0x0001aebb       0xaf common/libcommon.a(lvds.o)
 .debug_loc     0x0001af6a     0x1844 common/libcommon.a(vpp.o)
 .debug_loc     0x0001c7ae      0xef1 common/libcommon.a(hdmi.o)
 .debug_loc     0x0001d69f     0x183a common/libcommon.a(vout-wmt.o)
 .debug_loc     0x0001eed9       0x13 common/libcommon.a(lcd-oem.o)
 .debug_loc     0x0001eeec       0x13 common/libcommon.a(lcd-AUO-A080SN01.o)
 .debug_loc     0x0001eeff       0x13 common/libcommon.a(lcd-INNOLUX-AT070TN83.o)
 .debug_loc     0x0001ef12       0x22 common/libcommon.a(lcd-CHILIN-LW700at9003.o)
 .debug_loc     0x0001ef34       0x13 common/libcommon.a(lcd-EKING-EK08009-70135.o)
 .debug_loc     0x0001ef47       0x13 common/libcommon.a(lcd-HANNSTAR-HSD101PFW2.o)
 .debug_loc     0x0001ef5a      0x13c common/libcommon.a(vt1632.o)
 .debug_loc     0x0001f096      0xb94 common/libcommon.a(sil902x.o)
 .debug_loc     0x0001fc2a      0x624 common/libcommon.a(vpp-osif.o)
 .debug_loc     0x0002024e      0x5c7 common/libcommon.a(vout.o)
 .debug_loc     0x00020815      0x65e common/libcommon.a(sw_i2c.o)
 .debug_loc     0x00020e73      0xa7c common/libcommon.a(parse-edid.o)
 .debug_loc     0x000218ef      0x133 lib_generic/libgeneric.a(crc32.o)
 .debug_loc     0x00021a22      0x106 lib_generic/libgeneric.a(display_options.o)
 .debug_loc     0x00021b28      0xb8d lib_generic/libgeneric.a(string.o)
 .debug_loc     0x000226b5      0xab6 lib_generic/libgeneric.a(vsprintf.o)
 .debug_loc     0x0002316b     0x3247 lib_generic/libgeneric.a(zlib.o)
 .debug_loc     0x000263b2       0x20 board/wmt/libwmt.a(wmt.o)
 .debug_loc     0x000263d2      0x468 board/wmt/libwmt.a(flash.o)
 .debug_loc     0x0002683a      0x4e4 board/wmt/libwmt.a(spi_flash.o)
 .debug_loc     0x00026d1e       0x26 board/wmt/libwmt.a(nand_flash.o)
 .debug_loc     0x00026d44      0x9b2 board/wmt/libwmt.a(nor_flash_8bit.o)
 .debug_loc     0x000276f6      0x9da board/wmt/libwmt.a(nor_flash_16bit.o)
 .debug_loc     0x000280d0     0x11e3 board/wmt/libwmt.a(wmt_clk.o)
 .debug_loc     0x000292b3      0xd80 board/wmt/libwmt.a(ehci-hcd.o)
 .debug_loc     0x0002a033     0x120f board/wmt/libwmt.a(usb_uhci.o)
 .debug_loc     0x0002b242      0x7af board/wmt/libwmt.a(wmt_i2c.o)
 .debug_loc     0x0002b9f1      0x7af board/wmt/libwmt.a(wmt_i2c_1.o)
 .debug_loc     0x0002c1a0      0x198 cpu/arm920t/libarm920t.a(cpu.o)
 .debug_loc     0x0002c338       0xf1 cpu/arm920t/wmt/libwmt.a(serial.o)
 .debug_loc     0x0002c429       0xeb cpu/arm920t/wmt/libwmt.a(ether.o)
 .debug_loc     0x0002c514      0x53e cpu/arm920t/wmt/libwmt.a(gmacif.o)
 .debug_loc     0x0002ca52      0xc7b cpu/arm920t/wmt/libwmt.a(dma.o)
 .debug_loc     0x0002d6cd     0x1631 cpu/arm920t/wmt/libwmt.a(mmc.o)
 .debug_loc     0x0002ecfe      0x686 cpu/arm920t/wmt/libwmt.a(pcinet.o)
 .debug_loc     0x0002f384      0xb70 cpu/arm920t/wmt/libwmt.a(gmii.o)
 .debug_loc     0x0002fef4      0x420 cpu/arm920t/wmt/libwmt.a(gmib.o)
 .debug_loc     0x00030314      0x3fe cpu/arm920t/wmt/libwmt.a(galloct.o)
 .debug_loc     0x00030712     0x10b9 cpu/arm920t/wmt/libwmt.a(gmac.o)
 .debug_loc     0x000317cb      0x3a9 cpu/arm920t/wmt/libwmt.a(gadapter.o)
 .debug_loc     0x00031b74       0xc4 cpu/arm920t/wmt/libwmt.a(mem.o)
 .debug_loc     0x00031c38      0x2c7 cpu/arm920t/wmt/libwmt.a(vpci.o)
 .debug_loc     0x00031eff      0x421 cpu/arm920t/wmt/libwmt.a(upcix.o)
 .debug_loc     0x00032320      0x253 cpu/arm920t/wmt/libwmt.a(gcard.o)
 .debug_loc     0x00032573      0x5b0 cpu/arm920t/wmt/libwmt.a(gisr.o)
 .debug_loc     0x00032b23      0x4f4 cpu/arm920t/wmt/libwmt.a(tconvert.o)
 .debug_loc     0x00033017       0xe5 cpu/arm920t/wmt/libwmt.a(tcrc.o)
 .debug_loc     0x000330fc      0x283 lib_arm/libarm.a(armlinux.o)
 .debug_loc     0x0003337f     0x1eb8 fs/fat/libfat.a(fat.o)
 .debug_loc     0x00035237      0x281 disk/libdisk.a(part.o)
 .debug_loc     0x000354b8      0x392 disk/libdisk.a(part_dos.o)
 .debug_loc     0x0003584a       0x2c cpu/arm920t/wmt/libwmt.a(zde.o)

.debug_macinfo
 *(.debug_macinfo)

.debug_weaknames
 *(.debug_weaknames)

.debug_funcnames
 *(.debug_funcnames)

.debug_typenames
 *(.debug_typenames)

.debug_varnames
 *(.debug_varnames)
Address of section .text set to 0x3f80000
LOAD cpu/arm920t/start.o
START GROUP
LOAD lib_generic/libgeneric.a
LOAD board/wmt/libwmt.a
LOAD cpu/arm920t/libarm920t.a
LOAD cpu/arm920t/wmt/libwmt.a
LOAD lib_arm/libarm.a
LOAD fs/cramfs/libcramfs.a
LOAD fs/fat/libfat.a
LOAD fs/fdos/libfdos.a
LOAD fs/jffs2/libjffs2.a
LOAD fs/reiserfs/libreiserfs.a
LOAD fs/ext2/libext2fs.a
LOAD net/libnet.a
LOAD disk/libdisk.a
LOAD rtc/librtc.a
LOAD dtt/libdtt.a
LOAD drivers/libdrivers.a
LOAD drivers/sk98lin/libsk98lin.a
LOAD post/libpost.a
LOAD post/cpu/libcpu.a
LOAD common/libcommon.a
END GROUP
LOAD /root/Project/sdc1/AndroidPC_2.0/tools/arm-toolchain/bin/../lib/gcc/arm-none-eabi/4.5.2/libgcc.a
OUTPUT(u-boot elf32-littlearm)

.debug_pubtypes
                0x00000000     0x5a88
 .debug_pubtypes
                0x00000000       0x1e cpu/arm920t/libarm920t.a(interrupts.o)
 .debug_pubtypes
                0x0000001e       0x36 cpu/arm920t/wmt/libwmt.a(interrupts.o)
 .debug_pubtypes
                0x00000054       0x7e lib_arm/libarm.a(board.o)
 .debug_pubtypes
                0x000000d2       0xfb net/libnet.a(net.o)
 .debug_pubtypes
                0x000001cd       0x48 net/libnet.a(tftp.o)
 .debug_pubtypes
                0x00000215       0x85 net/libnet.a(bootp.o)
 .debug_pubtypes
                0x0000029a       0x52 net/libnet.a(rarp.o)
 .debug_pubtypes
                0x000002ec       0x31 net/libnet.a(eth.o)
 .debug_pubtypes
                0x0000031d       0x74 net/libnet.a(nfs.o)
 .debug_pubtypes
                0x00000391       0x2e common/libcommon.a(main.o)
 .debug_pubtypes
                0x000003bf       0x92 common/libcommon.a(cmd_autoscript.o)
 .debug_pubtypes
                0x00000451       0x66 common/libcommon.a(cmd_bdinfo.o)
 .debug_pubtypes
                0x000004b7       0x38 common/libcommon.a(cmd_boot.o)
 .debug_pubtypes
                0x000004ef      0x18a common/libcommon.a(cmd_bootm.o)
 .debug_pubtypes
                0x00000679       0x58 common/libcommon.a(cmd_console.o)
 .debug_pubtypes
                0x000006d1       0x6d common/libcommon.a(cmd_fat.o)
 .debug_pubtypes
                0x0000073e       0x5e common/libcommon.a(cmd_flash.o)
 .debug_pubtypes
                0x0000079c       0x60 common/libcommon.a(cmd_i2c.o)
 .debug_pubtypes
                0x000007fc      0x11e common/libcommon.a(cmd_ide.o)
 .debug_pubtypes
                0x0000091a       0x5c common/libcommon.a(cmd_itest.o)
 .debug_pubtypes
                0x00000976       0x66 common/libcommon.a(cmd_load.o)
 .debug_pubtypes
                0x000009dc       0x61 common/libcommon.a(cmd_mem.o)
 .debug_pubtypes
                0x00000a3d       0xe3 common/libcommon.a(cmd_mii.o)
 .debug_pubtypes
                0x00000b20       0x38 common/libcommon.a(cmd_misc.o)
 .debug_pubtypes
                0x00000b58       0x38 common/libcommon.a(cmd_mmc.o)
 .debug_pubtypes
                0x00000b90       0x66 common/libcommon.a(cmd_dma.o)
 .debug_pubtypes
                0x00000bf6      0x15f common/libcommon.a(cmd_nand.o)
 .debug_pubtypes
                0x00000d55       0x51 common/libcommon.a(cmd_net.o)
 .debug_pubtypes
                0x00000da6       0x8c common/libcommon.a(cmd_nvedit.o)
 .debug_pubtypes
                0x00000e32      0x16b common/libcommon.a(cmd_usb.o)
 .debug_pubtypes
                0x00000f9d       0x2e common/libcommon.a(command.o)
 .debug_pubtypes
                0x00000fcb       0xaa common/libcommon.a(console.o)
 .debug_pubtypes
                0x00001075       0x3c common/libcommon.a(devices.o)
 .debug_pubtypes
                0x000010b1       0xa1 common/libcommon.a(dlmalloc.o)
 .debug_pubtypes
                0x00001152       0x70 common/libcommon.a(env_common.o)
 .debug_pubtypes
                0x000011c2       0x70 common/libcommon.a(env_flash.o)
 .debug_pubtypes
                0x00001232       0x4a common/libcommon.a(exports.o)
 .debug_pubtypes
                0x0000127c      0x187 common/libcommon.a(wmt_cmd_display.o)
 .debug_pubtypes
                0x00001403      0x18a common/libcommon.a(minivgui.o)
 .debug_pubtypes
                0x0000158d      0x1d2 common/libcommon.a(uboot-vpp.o)
 .debug_pubtypes
                0x0000175f      0x12e common/libcommon.a(cmd_mbit.o)
 .debug_pubtypes
                0x0000188d      0x156 common/libcommon.a(cmd_textout.o)
 .debug_pubtypes
                0x000019e3      0x133 common/libcommon.a(env_parse.o)
 .debug_pubtypes
                0x00001b16       0x42 common/libcommon.a(flash.o)
 .debug_pubtypes
                0x00001b58      0x110 common/libcommon.a(hush.o)
 .debug_pubtypes
                0x00001c68       0x4b common/libcommon.a(lists.o)
 .debug_pubtypes
                0x00001cb3       0x2c common/libcommon.a(miiphyutil.o)
 .debug_pubtypes
                0x00001cdf       0x1c common/libcommon.a(s_record.o)
 .debug_pubtypes
                0x00001cfb      0x131 common/libcommon.a(usb.o)
 .debug_pubtypes
                0x00001e2c      0x158 common/libcommon.a(usb_storage.o)
 .debug_pubtypes
                0x00001f84      0x14a common/libcommon.a(pwm.o)
 .debug_pubtypes
                0x000020ce      0x118 common/libcommon.a(wmt-ost.o)
 .debug_pubtypes
                0x000021e6      0x192 common/libcommon.a(govrh.o)
 .debug_pubtypes
                0x00002378      0x1d0 common/libcommon.a(lcd.o)
 .debug_pubtypes
                0x00002548      0x108 common/libcommon.a(lvds.o)
 .debug_pubtypes
                0x00002650      0x1a0 common/libcommon.a(vpp.o)
 .debug_pubtypes
                0x000027f0      0x171 common/libcommon.a(hdmi.o)
 .debug_pubtypes
                0x00002961      0x1cb common/libcommon.a(vout-wmt.o)
 .debug_pubtypes
                0x00002b2c      0x128 common/libcommon.a(lcd-oem.o)
 .debug_pubtypes
                0x00002c54      0x128 common/libcommon.a(lcd-AUO-A080SN01.o)
 .debug_pubtypes
                0x00002d7c      0x128 common/libcommon.a(lcd-INNOLUX-AT070TN83.o)
 .debug_pubtypes
                0x00002ea4      0x128 common/libcommon.a(lcd-CHILIN-LW700at9003.o)
 .debug_pubtypes
                0x00002fcc      0x128 common/libcommon.a(lcd-EKING-EK08009-70135.o)
 .debug_pubtypes
                0x000030f4      0x128 common/libcommon.a(lcd-HANNSTAR-HSD101PFW2.o)
 .debug_pubtypes
                0x0000321c      0x182 common/libcommon.a(vt1632.o)
 .debug_pubtypes
                0x0000339e      0x1b2 common/libcommon.a(sil902x.o)
 .debug_pubtypes
                0x00003550      0x116 common/libcommon.a(vpp-osif.o)
 .debug_pubtypes
                0x00003666      0x188 common/libcommon.a(vout.o)
 .debug_pubtypes
                0x000037ee      0x12b common/libcommon.a(sw_i2c.o)
 .debug_pubtypes
                0x00003919      0x139 common/libcommon.a(parse-edid.o)
 .debug_pubtypes
                0x00003a52       0x4d lib_generic/libgeneric.a(crc32.o)
 .debug_pubtypes
                0x00003a9f       0x1c lib_generic/libgeneric.a(display_options.o)
 .debug_pubtypes
                0x00003abb       0x31 lib_generic/libgeneric.a(string.o)
 .debug_pubtypes
                0x00003aec       0x3f lib_generic/libgeneric.a(vsprintf.o)
 .debug_pubtypes
                0x00003b2b      0x151 lib_generic/libgeneric.a(zlib.o)
 .debug_pubtypes
                0x00003c7c       0x4a board/wmt/libwmt.a(wmt.o)
 .debug_pubtypes
                0x00003cc6       0x90 board/wmt/libwmt.a(flash.o)
 .debug_pubtypes
                0x00003d56       0x12 board/wmt/libwmt.a(main.o)
 .debug_pubtypes
                0x00003d68       0x6a board/wmt/libwmt.a(spi_flash.o)
 .debug_pubtypes
                0x00003dd2       0x42 board/wmt/libwmt.a(nand_flash.o)
 .debug_pubtypes
                0x00003e14       0x6d board/wmt/libwmt.a(nor_flash_8bit.o)
 .debug_pubtypes
                0x00003e81       0x77 board/wmt/libwmt.a(nor_flash_16bit.o)
 .debug_pubtypes
                0x00003ef8       0x29 board/wmt/libwmt.a(wmt_clk.o)
 .debug_pubtypes
                0x00003f21      0x312 board/wmt/libwmt.a(ehci-hcd.o)
 .debug_pubtypes
                0x00004233       0xcb board/wmt/libwmt.a(usb_uhci.o)
 .debug_pubtypes
                0x000042fe       0x6f board/wmt/libwmt.a(wmt_i2c.o)
 .debug_pubtypes
                0x0000436d       0x6f board/wmt/libwmt.a(wmt_i2c_1.o)
 .debug_pubtypes
                0x000043dc       0x38 cpu/arm920t/libarm920t.a(cpu.o)
 .debug_pubtypes
                0x00004414       0x84 cpu/arm920t/wmt/libwmt.a(serial.o)
 .debug_pubtypes
                0x00004498       0x31 cpu/arm920t/wmt/libwmt.a(ether.o)
 .debug_pubtypes
                0x000044c9      0x28d cpu/arm920t/wmt/libwmt.a(gmacif.o)
 .debug_pubtypes
                0x00004756       0xc8 cpu/arm920t/wmt/libwmt.a(dma.o)
 .debug_pubtypes
                0x0000481e      0x100 cpu/arm920t/wmt/libwmt.a(mmc.o)
 .debug_pubtypes
                0x0000491e       0x52 cpu/arm920t/wmt/libwmt.a(pcinet.o)
 .debug_pubtypes
                0x00004970       0xa3 cpu/arm920t/wmt/libwmt.a(gmii.o)
 .debug_pubtypes
                0x00004a13      0x17b cpu/arm920t/wmt/libwmt.a(gmib.o)
 .debug_pubtypes
                0x00004b8e      0x23a cpu/arm920t/wmt/libwmt.a(galloct.o)
 .debug_pubtypes
                0x00004dc8      0x240 cpu/arm920t/wmt/libwmt.a(gmac.o)
 .debug_pubtypes
                0x00005008      0x27e cpu/arm920t/wmt/libwmt.a(gadapter.o)
 .debug_pubtypes
                0x00005286       0x97 cpu/arm920t/wmt/libwmt.a(mem.o)
 .debug_pubtypes
                0x0000531d       0x31 cpu/arm920t/wmt/libwmt.a(vpci.o)
 .debug_pubtypes
                0x0000534e       0x3a cpu/arm920t/wmt/libwmt.a(upcix.o)
 .debug_pubtypes
                0x00005388       0x2f cpu/arm920t/wmt/libwmt.a(gcard.o)
 .debug_pubtypes
                0x000053b7      0x216 cpu/arm920t/wmt/libwmt.a(gisr.o)
 .debug_pubtypes
                0x000055cd       0x4e cpu/arm920t/wmt/libwmt.a(tconvert.o)
 .debug_pubtypes
                0x0000561b       0x1c cpu/arm920t/wmt/libwmt.a(tcrc.o)
 .debug_pubtypes
                0x00005637      0x1ac lib_arm/libarm.a(armlinux.o)
 .debug_pubtypes
                0x000057e3       0x12 lib_arm/libarm.a(cache.o)
 .debug_pubtypes
                0x000057f5      0x121 fs/fat/libfat.a(fat.o)
 .debug_pubtypes
                0x00005916       0x83 disk/libdisk.a(part.o)
 .debug_pubtypes
                0x00005999       0xa9 disk/libdisk.a(part_dos.o)
 .debug_pubtypes
                0x00005a42       0x46 cpu/arm920t/wmt/libwmt.a(zde.o)

.debug_ranges   0x00000000     0x1d68
 .debug_ranges  0x00000000       0x38 lib_arm/libarm.a(board.o)
 .debug_ranges  0x00000038       0x38 net/libnet.a(net.o)
 .debug_ranges  0x00000070       0x30 net/libnet.a(tftp.o)
 .debug_ranges  0x000000a0       0x78 net/libnet.a(bootp.o)
 .debug_ranges  0x00000118       0x30 net/libnet.a(nfs.o)
 .debug_ranges  0x00000148       0xb8 common/libcommon.a(main.o)
 .debug_ranges  0x00000200       0x30 common/libcommon.a(cmd_bootm.o)
 .debug_ranges  0x00000230       0x48 common/libcommon.a(cmd_fat.o)
 .debug_ranges  0x00000278       0x18 common/libcommon.a(cmd_flash.o)
 .debug_ranges  0x00000290       0x18 common/libcommon.a(cmd_i2c.o)
 .debug_ranges  0x000002a8       0x78 common/libcommon.a(cmd_ide.o)
 .debug_ranges  0x00000320       0x18 common/libcommon.a(cmd_itest.o)
 .debug_ranges  0x00000338       0xd8 common/libcommon.a(cmd_load.o)
 .debug_ranges  0x00000410       0x18 common/libcommon.a(cmd_mem.o)
 .debug_ranges  0x00000428       0x60 common/libcommon.a(cmd_mii.o)
 .debug_ranges  0x00000488      0x118 common/libcommon.a(cmd_nand.o)
 .debug_ranges  0x000005a0       0x50 common/libcommon.a(cmd_nvedit.o)
 .debug_ranges  0x000005f0       0x50 common/libcommon.a(cmd_usb.o)
 .debug_ranges  0x00000640       0x90 common/libcommon.a(command.o)
 .debug_ranges  0x000006d0       0x30 common/libcommon.a(console.o)
 .debug_ranges  0x00000700       0x68 common/libcommon.a(minivgui.o)
 .debug_ranges  0x00000768       0x30 common/libcommon.a(uboot-vpp.o)
 .debug_ranges  0x00000798       0x48 common/libcommon.a(flash.o)
 .debug_ranges  0x000007e0      0x1c8 common/libcommon.a(hush.o)
 .debug_ranges  0x000009a8       0x30 common/libcommon.a(usb.o)
 .debug_ranges  0x000009d8       0xb0 common/libcommon.a(usb_storage.o)
 .debug_ranges  0x00000a88       0x18 common/libcommon.a(vpp.o)
 .debug_ranges  0x00000aa0       0x50 common/libcommon.a(vout-wmt.o)
 .debug_ranges  0x00000af0       0xc0 common/libcommon.a(parse-edid.o)
 .debug_ranges  0x00000bb0      0x1f0 lib_generic/libgeneric.a(zlib.o)
 .debug_ranges  0x00000da0       0xe0 board/wmt/libwmt.a(spi_flash.o)
 .debug_ranges  0x00000e80       0xb0 board/wmt/libwmt.a(nor_flash_8bit.o)
 .debug_ranges  0x00000f30       0xe8 board/wmt/libwmt.a(nor_flash_16bit.o)
 .debug_ranges  0x00001018       0xb0 board/wmt/libwmt.a(usb_uhci.o)
 .debug_ranges  0x000010c8      0x1e0 board/wmt/libwmt.a(wmt_i2c.o)
 .debug_ranges  0x000012a8      0x1e0 board/wmt/libwmt.a(wmt_i2c_1.o)
 .debug_ranges  0x00001488      0x1b0 cpu/arm920t/wmt/libwmt.a(gmacif.o)
 .debug_ranges  0x00001638       0xd8 cpu/arm920t/wmt/libwmt.a(gmii.o)
 .debug_ranges  0x00001710       0x18 cpu/arm920t/wmt/libwmt.a(gmib.o)
 .debug_ranges  0x00001728       0x20 cpu/arm920t/wmt/libwmt.a(galloct.o)
 .debug_ranges  0x00001748      0x1f8 cpu/arm920t/wmt/libwmt.a(gmac.o)
 .debug_ranges  0x00001940       0x80 cpu/arm920t/wmt/libwmt.a(gadapter.o)
 .debug_ranges  0x000019c0       0xd0 cpu/arm920t/wmt/libwmt.a(upcix.o)
 .debug_ranges  0x00001a90       0x48 cpu/arm920t/wmt/libwmt.a(gcard.o)
 .debug_ranges  0x00001ad8      0x120 cpu/arm920t/wmt/libwmt.a(gisr.o)
 .debug_ranges  0x00001bf8      0x128 fs/fat/libfat.a(fat.o)
 .debug_ranges  0x00001d20       0x18 disk/libdisk.a(part_dos.o)
 .debug_ranges  0x00001d38       0x30 cpu/arm920t/wmt/libwmt.a(zde.o)
